
STM32F407VET6_7.0TFT_MAXII_16Bit.elf:     file format elf32-littlearm

Sections:
Idx Name          Size      VMA       LMA       File off  Algn
  0 .isr_vector   00000188  08000000  08000000  00010000  2**0
                  CONTENTS, ALLOC, LOAD, READONLY, DATA
  1 .text         00003700  08000188  08000188  00010188  2**3
                  CONTENTS, ALLOC, LOAD, READONLY, CODE
  2 .rodata       00000010  08003888  08003888  00013888  2**2
                  CONTENTS, ALLOC, LOAD, READONLY, DATA
  3 .ARM.extab    00000000  08003898  08003898  0002000c  2**0
                  CONTENTS
  4 .ARM          00000008  08003898  08003898  00013898  2**2
                  CONTENTS, ALLOC, LOAD, READONLY, DATA
  5 .preinit_array 00000000  080038a0  080038a0  0002000c  2**0
                  CONTENTS, ALLOC, LOAD, DATA
  6 .init_array   00000004  080038a0  080038a0  000138a0  2**2
                  CONTENTS, ALLOC, LOAD, READONLY, DATA
  7 .fini_array   00000004  080038a4  080038a4  000138a4  2**2
                  CONTENTS, ALLOC, LOAD, READONLY, DATA
  8 .data         0000000c  20000000  080038a8  00020000  2**2
                  CONTENTS, ALLOC, LOAD, DATA
  9 .ccmram       00000000  10000000  10000000  0002000c  2**0
                  CONTENTS
 10 .bss          00000098  2000000c  2000000c  0002000c  2**2
                  ALLOC
 11 ._user_heap_stack 00000604  200000a4  200000a4  0002000c  2**0
                  ALLOC
 12 .ARM.attributes 00000030  00000000  00000000  0002000c  2**0
                  CONTENTS, READONLY
 13 .comment      00000043  00000000  00000000  0002003c  2**0
                  CONTENTS, READONLY
 14 .debug_info   00011f31  00000000  00000000  0002007f  2**0
                  CONTENTS, READONLY, DEBUGGING, OCTETS
 15 .debug_abbrev 000024f2  00000000  00000000  00031fb0  2**0
                  CONTENTS, READONLY, DEBUGGING, OCTETS
 16 .debug_loclists 000094f6  00000000  00000000  000344a2  2**0
                  CONTENTS, READONLY, DEBUGGING, OCTETS
 17 .debug_aranges 000008d8  00000000  00000000  0003d998  2**3
                  CONTENTS, READONLY, DEBUGGING, OCTETS
 18 .debug_rnglists 0000222e  00000000  00000000  0003e270  2**0
                  CONTENTS, READONLY, DEBUGGING, OCTETS
 19 .debug_macro  00020dc1  00000000  00000000  0004049e  2**0
                  CONTENTS, READONLY, DEBUGGING, OCTETS
 20 .debug_line   00012724  00000000  00000000  0006125f  2**0
                  CONTENTS, READONLY, DEBUGGING, OCTETS
 21 .debug_str    000c74ef  00000000  00000000  00073983  2**0
                  CONTENTS, READONLY, DEBUGGING, OCTETS
 22 .debug_frame  000018dc  00000000  00000000  0013ae74  2**2
                  CONTENTS, READONLY, DEBUGGING, OCTETS
 23 .debug_line_str 0000006e  00000000  00000000  0013c750  2**0
                  CONTENTS, READONLY, DEBUGGING, OCTETS

Disassembly of section .text:

08000188 <__do_global_dtors_aux>:
 8000188:	b510      	push	{r4, lr}
 800018a:	4c05      	ldr	r4, [pc, #20]	; (80001a0 <__do_global_dtors_aux+0x18>)
 800018c:	7823      	ldrb	r3, [r4, #0]
 800018e:	b933      	cbnz	r3, 800019e <__do_global_dtors_aux+0x16>
 8000190:	4b04      	ldr	r3, [pc, #16]	; (80001a4 <__do_global_dtors_aux+0x1c>)
 8000192:	b113      	cbz	r3, 800019a <__do_global_dtors_aux+0x12>
 8000194:	4804      	ldr	r0, [pc, #16]	; (80001a8 <__do_global_dtors_aux+0x20>)
 8000196:	f3af 8000 	nop.w
 800019a:	2301      	movs	r3, #1
 800019c:	7023      	strb	r3, [r4, #0]
 800019e:	bd10      	pop	{r4, pc}
 80001a0:	2000000c 	.word	0x2000000c
 80001a4:	00000000 	.word	0x00000000
 80001a8:	08003870 	.word	0x08003870

080001ac <frame_dummy>:
 80001ac:	b508      	push	{r3, lr}
 80001ae:	4b03      	ldr	r3, [pc, #12]	; (80001bc <frame_dummy+0x10>)
 80001b0:	b11b      	cbz	r3, 80001ba <frame_dummy+0xe>
 80001b2:	4903      	ldr	r1, [pc, #12]	; (80001c0 <frame_dummy+0x14>)
 80001b4:	4803      	ldr	r0, [pc, #12]	; (80001c4 <frame_dummy+0x18>)
 80001b6:	f3af 8000 	nop.w
 80001ba:	bd08      	pop	{r3, pc}
 80001bc:	00000000 	.word	0x00000000
 80001c0:	20000010 	.word	0x20000010
 80001c4:	08003870 	.word	0x08003870

080001c8 <__aeabi_uldivmod>:
 80001c8:	b953      	cbnz	r3, 80001e0 <__aeabi_uldivmod+0x18>
 80001ca:	b94a      	cbnz	r2, 80001e0 <__aeabi_uldivmod+0x18>
 80001cc:	2900      	cmp	r1, #0
 80001ce:	bf08      	it	eq
 80001d0:	2800      	cmpeq	r0, #0
 80001d2:	bf1c      	itt	ne
 80001d4:	f04f 31ff 	movne.w	r1, #4294967295
 80001d8:	f04f 30ff 	movne.w	r0, #4294967295
 80001dc:	f000 b970 	b.w	80004c0 <__aeabi_idiv0>
 80001e0:	f1ad 0c08 	sub.w	ip, sp, #8
 80001e4:	e96d ce04 	strd	ip, lr, [sp, #-16]!
 80001e8:	f000 f806 	bl	80001f8 <__udivmoddi4>
 80001ec:	f8dd e004 	ldr.w	lr, [sp, #4]
 80001f0:	e9dd 2302 	ldrd	r2, r3, [sp, #8]
 80001f4:	b004      	add	sp, #16
 80001f6:	4770      	bx	lr

080001f8 <__udivmoddi4>:
 80001f8:	e92d 47f0 	stmdb	sp!, {r4, r5, r6, r7, r8, r9, sl, lr}
 80001fc:	9e08      	ldr	r6, [sp, #32]
 80001fe:	460d      	mov	r5, r1
 8000200:	4604      	mov	r4, r0
 8000202:	460f      	mov	r7, r1
 8000204:	2b00      	cmp	r3, #0
 8000206:	d14a      	bne.n	800029e <__udivmoddi4+0xa6>
 8000208:	428a      	cmp	r2, r1
 800020a:	4694      	mov	ip, r2
 800020c:	d965      	bls.n	80002da <__udivmoddi4+0xe2>
 800020e:	fab2 f382 	clz	r3, r2
 8000212:	b143      	cbz	r3, 8000226 <__udivmoddi4+0x2e>
 8000214:	fa02 fc03 	lsl.w	ip, r2, r3
 8000218:	f1c3 0220 	rsb	r2, r3, #32
 800021c:	409f      	lsls	r7, r3
 800021e:	fa20 f202 	lsr.w	r2, r0, r2
 8000222:	4317      	orrs	r7, r2
 8000224:	409c      	lsls	r4, r3
 8000226:	ea4f 4e1c 	mov.w	lr, ip, lsr #16
 800022a:	fa1f f58c 	uxth.w	r5, ip
 800022e:	fbb7 f1fe 	udiv	r1, r7, lr
 8000232:	0c22      	lsrs	r2, r4, #16
 8000234:	fb0e 7711 	mls	r7, lr, r1, r7
 8000238:	ea42 4207 	orr.w	r2, r2, r7, lsl #16
 800023c:	fb01 f005 	mul.w	r0, r1, r5
 8000240:	4290      	cmp	r0, r2
 8000242:	d90a      	bls.n	800025a <__udivmoddi4+0x62>
 8000244:	eb1c 0202 	adds.w	r2, ip, r2
 8000248:	f101 37ff 	add.w	r7, r1, #4294967295
 800024c:	f080 811c 	bcs.w	8000488 <__udivmoddi4+0x290>
 8000250:	4290      	cmp	r0, r2
 8000252:	f240 8119 	bls.w	8000488 <__udivmoddi4+0x290>
 8000256:	3902      	subs	r1, #2
 8000258:	4462      	add	r2, ip
 800025a:	1a12      	subs	r2, r2, r0
 800025c:	b2a4      	uxth	r4, r4
 800025e:	fbb2 f0fe 	udiv	r0, r2, lr
 8000262:	fb0e 2210 	mls	r2, lr, r0, r2
 8000266:	ea44 4402 	orr.w	r4, r4, r2, lsl #16
 800026a:	fb00 f505 	mul.w	r5, r0, r5
 800026e:	42a5      	cmp	r5, r4
 8000270:	d90a      	bls.n	8000288 <__udivmoddi4+0x90>
 8000272:	eb1c 0404 	adds.w	r4, ip, r4
 8000276:	f100 32ff 	add.w	r2, r0, #4294967295
 800027a:	f080 8107 	bcs.w	800048c <__udivmoddi4+0x294>
 800027e:	42a5      	cmp	r5, r4
 8000280:	f240 8104 	bls.w	800048c <__udivmoddi4+0x294>
 8000284:	4464      	add	r4, ip
 8000286:	3802      	subs	r0, #2
 8000288:	ea40 4001 	orr.w	r0, r0, r1, lsl #16
 800028c:	1b64      	subs	r4, r4, r5
 800028e:	2100      	movs	r1, #0
 8000290:	b11e      	cbz	r6, 800029a <__udivmoddi4+0xa2>
 8000292:	40dc      	lsrs	r4, r3
 8000294:	2300      	movs	r3, #0
 8000296:	e9c6 4300 	strd	r4, r3, [r6]
 800029a:	e8bd 87f0 	ldmia.w	sp!, {r4, r5, r6, r7, r8, r9, sl, pc}
 800029e:	428b      	cmp	r3, r1
 80002a0:	d908      	bls.n	80002b4 <__udivmoddi4+0xbc>
 80002a2:	2e00      	cmp	r6, #0
 80002a4:	f000 80ed 	beq.w	8000482 <__udivmoddi4+0x28a>
 80002a8:	2100      	movs	r1, #0
 80002aa:	e9c6 0500 	strd	r0, r5, [r6]
 80002ae:	4608      	mov	r0, r1
 80002b0:	e8bd 87f0 	ldmia.w	sp!, {r4, r5, r6, r7, r8, r9, sl, pc}
 80002b4:	fab3 f183 	clz	r1, r3
 80002b8:	2900      	cmp	r1, #0
 80002ba:	d149      	bne.n	8000350 <__udivmoddi4+0x158>
 80002bc:	42ab      	cmp	r3, r5
 80002be:	d302      	bcc.n	80002c6 <__udivmoddi4+0xce>
 80002c0:	4282      	cmp	r2, r0
 80002c2:	f200 80f8 	bhi.w	80004b6 <__udivmoddi4+0x2be>
 80002c6:	1a84      	subs	r4, r0, r2
 80002c8:	eb65 0203 	sbc.w	r2, r5, r3
 80002cc:	2001      	movs	r0, #1
 80002ce:	4617      	mov	r7, r2
 80002d0:	2e00      	cmp	r6, #0
 80002d2:	d0e2      	beq.n	800029a <__udivmoddi4+0xa2>
 80002d4:	e9c6 4700 	strd	r4, r7, [r6]
 80002d8:	e7df      	b.n	800029a <__udivmoddi4+0xa2>
 80002da:	b902      	cbnz	r2, 80002de <__udivmoddi4+0xe6>
 80002dc:	deff      	udf	#255	; 0xff
 80002de:	fab2 f382 	clz	r3, r2
 80002e2:	2b00      	cmp	r3, #0
 80002e4:	f040 8090 	bne.w	8000408 <__udivmoddi4+0x210>
 80002e8:	1a8a      	subs	r2, r1, r2
 80002ea:	ea4f 471c 	mov.w	r7, ip, lsr #16
 80002ee:	fa1f fe8c 	uxth.w	lr, ip
 80002f2:	2101      	movs	r1, #1
 80002f4:	fbb2 f5f7 	udiv	r5, r2, r7
 80002f8:	fb07 2015 	mls	r0, r7, r5, r2
 80002fc:	0c22      	lsrs	r2, r4, #16
 80002fe:	ea42 4200 	orr.w	r2, r2, r0, lsl #16
 8000302:	fb0e f005 	mul.w	r0, lr, r5
 8000306:	4290      	cmp	r0, r2
 8000308:	d908      	bls.n	800031c <__udivmoddi4+0x124>
 800030a:	eb1c 0202 	adds.w	r2, ip, r2
 800030e:	f105 38ff 	add.w	r8, r5, #4294967295
 8000312:	d202      	bcs.n	800031a <__udivmoddi4+0x122>
 8000314:	4290      	cmp	r0, r2
 8000316:	f200 80cb 	bhi.w	80004b0 <__udivmoddi4+0x2b8>
 800031a:	4645      	mov	r5, r8
 800031c:	1a12      	subs	r2, r2, r0
 800031e:	b2a4      	uxth	r4, r4
 8000320:	fbb2 f0f7 	udiv	r0, r2, r7
 8000324:	fb07 2210 	mls	r2, r7, r0, r2
 8000328:	ea44 4402 	orr.w	r4, r4, r2, lsl #16
 800032c:	fb0e fe00 	mul.w	lr, lr, r0
 8000330:	45a6      	cmp	lr, r4
 8000332:	d908      	bls.n	8000346 <__udivmoddi4+0x14e>
 8000334:	eb1c 0404 	adds.w	r4, ip, r4
 8000338:	f100 32ff 	add.w	r2, r0, #4294967295
 800033c:	d202      	bcs.n	8000344 <__udivmoddi4+0x14c>
 800033e:	45a6      	cmp	lr, r4
 8000340:	f200 80bb 	bhi.w	80004ba <__udivmoddi4+0x2c2>
 8000344:	4610      	mov	r0, r2
 8000346:	eba4 040e 	sub.w	r4, r4, lr
 800034a:	ea40 4005 	orr.w	r0, r0, r5, lsl #16
 800034e:	e79f      	b.n	8000290 <__udivmoddi4+0x98>
 8000350:	f1c1 0720 	rsb	r7, r1, #32
 8000354:	408b      	lsls	r3, r1
 8000356:	fa22 fc07 	lsr.w	ip, r2, r7
 800035a:	ea4c 0c03 	orr.w	ip, ip, r3
 800035e:	fa05 f401 	lsl.w	r4, r5, r1
 8000362:	fa20 f307 	lsr.w	r3, r0, r7
 8000366:	40fd      	lsrs	r5, r7
 8000368:	ea4f 491c 	mov.w	r9, ip, lsr #16
 800036c:	4323      	orrs	r3, r4
 800036e:	fbb5 f8f9 	udiv	r8, r5, r9
 8000372:	fa1f fe8c 	uxth.w	lr, ip
 8000376:	fb09 5518 	mls	r5, r9, r8, r5
 800037a:	0c1c      	lsrs	r4, r3, #16
 800037c:	ea44 4405 	orr.w	r4, r4, r5, lsl #16
 8000380:	fb08 f50e 	mul.w	r5, r8, lr
 8000384:	42a5      	cmp	r5, r4
 8000386:	fa02 f201 	lsl.w	r2, r2, r1
 800038a:	fa00 f001 	lsl.w	r0, r0, r1
 800038e:	d90b      	bls.n	80003a8 <__udivmoddi4+0x1b0>
 8000390:	eb1c 0404 	adds.w	r4, ip, r4
 8000394:	f108 3aff 	add.w	sl, r8, #4294967295
 8000398:	f080 8088 	bcs.w	80004ac <__udivmoddi4+0x2b4>
 800039c:	42a5      	cmp	r5, r4
 800039e:	f240 8085 	bls.w	80004ac <__udivmoddi4+0x2b4>
 80003a2:	f1a8 0802 	sub.w	r8, r8, #2
 80003a6:	4464      	add	r4, ip
 80003a8:	1b64      	subs	r4, r4, r5
 80003aa:	b29d      	uxth	r5, r3
 80003ac:	fbb4 f3f9 	udiv	r3, r4, r9
 80003b0:	fb09 4413 	mls	r4, r9, r3, r4
 80003b4:	ea45 4404 	orr.w	r4, r5, r4, lsl #16
 80003b8:	fb03 fe0e 	mul.w	lr, r3, lr
 80003bc:	45a6      	cmp	lr, r4
 80003be:	d908      	bls.n	80003d2 <__udivmoddi4+0x1da>
 80003c0:	eb1c 0404 	adds.w	r4, ip, r4
 80003c4:	f103 35ff 	add.w	r5, r3, #4294967295
 80003c8:	d26c      	bcs.n	80004a4 <__udivmoddi4+0x2ac>
 80003ca:	45a6      	cmp	lr, r4
 80003cc:	d96a      	bls.n	80004a4 <__udivmoddi4+0x2ac>
 80003ce:	3b02      	subs	r3, #2
 80003d0:	4464      	add	r4, ip
 80003d2:	ea43 4308 	orr.w	r3, r3, r8, lsl #16
 80003d6:	fba3 9502 	umull	r9, r5, r3, r2
 80003da:	eba4 040e 	sub.w	r4, r4, lr
 80003de:	42ac      	cmp	r4, r5
 80003e0:	46c8      	mov	r8, r9
 80003e2:	46ae      	mov	lr, r5
 80003e4:	d356      	bcc.n	8000494 <__udivmoddi4+0x29c>
 80003e6:	d053      	beq.n	8000490 <__udivmoddi4+0x298>
 80003e8:	b156      	cbz	r6, 8000400 <__udivmoddi4+0x208>
 80003ea:	ebb0 0208 	subs.w	r2, r0, r8
 80003ee:	eb64 040e 	sbc.w	r4, r4, lr
 80003f2:	fa04 f707 	lsl.w	r7, r4, r7
 80003f6:	40ca      	lsrs	r2, r1
 80003f8:	40cc      	lsrs	r4, r1
 80003fa:	4317      	orrs	r7, r2
 80003fc:	e9c6 7400 	strd	r7, r4, [r6]
 8000400:	4618      	mov	r0, r3
 8000402:	2100      	movs	r1, #0
 8000404:	e8bd 87f0 	ldmia.w	sp!, {r4, r5, r6, r7, r8, r9, sl, pc}
 8000408:	f1c3 0120 	rsb	r1, r3, #32
 800040c:	fa02 fc03 	lsl.w	ip, r2, r3
 8000410:	fa20 f201 	lsr.w	r2, r0, r1
 8000414:	fa25 f101 	lsr.w	r1, r5, r1
 8000418:	409d      	lsls	r5, r3
 800041a:	432a      	orrs	r2, r5
 800041c:	ea4f 471c 	mov.w	r7, ip, lsr #16
 8000420:	fa1f fe8c 	uxth.w	lr, ip
 8000424:	fbb1 f0f7 	udiv	r0, r1, r7
 8000428:	fb07 1510 	mls	r5, r7, r0, r1
 800042c:	0c11      	lsrs	r1, r2, #16
 800042e:	ea41 4105 	orr.w	r1, r1, r5, lsl #16
 8000432:	fb00 f50e 	mul.w	r5, r0, lr
 8000436:	428d      	cmp	r5, r1
 8000438:	fa04 f403 	lsl.w	r4, r4, r3
 800043c:	d908      	bls.n	8000450 <__udivmoddi4+0x258>
 800043e:	eb1c 0101 	adds.w	r1, ip, r1
 8000442:	f100 38ff 	add.w	r8, r0, #4294967295
 8000446:	d22f      	bcs.n	80004a8 <__udivmoddi4+0x2b0>
 8000448:	428d      	cmp	r5, r1
 800044a:	d92d      	bls.n	80004a8 <__udivmoddi4+0x2b0>
 800044c:	3802      	subs	r0, #2
 800044e:	4461      	add	r1, ip
 8000450:	1b49      	subs	r1, r1, r5
 8000452:	b292      	uxth	r2, r2
 8000454:	fbb1 f5f7 	udiv	r5, r1, r7
 8000458:	fb07 1115 	mls	r1, r7, r5, r1
 800045c:	ea42 4201 	orr.w	r2, r2, r1, lsl #16
 8000460:	fb05 f10e 	mul.w	r1, r5, lr
 8000464:	4291      	cmp	r1, r2
 8000466:	d908      	bls.n	800047a <__udivmoddi4+0x282>
 8000468:	eb1c 0202 	adds.w	r2, ip, r2
 800046c:	f105 38ff 	add.w	r8, r5, #4294967295
 8000470:	d216      	bcs.n	80004a0 <__udivmoddi4+0x2a8>
 8000472:	4291      	cmp	r1, r2
 8000474:	d914      	bls.n	80004a0 <__udivmoddi4+0x2a8>
 8000476:	3d02      	subs	r5, #2
 8000478:	4462      	add	r2, ip
 800047a:	1a52      	subs	r2, r2, r1
 800047c:	ea45 4100 	orr.w	r1, r5, r0, lsl #16
 8000480:	e738      	b.n	80002f4 <__udivmoddi4+0xfc>
 8000482:	4631      	mov	r1, r6
 8000484:	4630      	mov	r0, r6
 8000486:	e708      	b.n	800029a <__udivmoddi4+0xa2>
 8000488:	4639      	mov	r1, r7
 800048a:	e6e6      	b.n	800025a <__udivmoddi4+0x62>
 800048c:	4610      	mov	r0, r2
 800048e:	e6fb      	b.n	8000288 <__udivmoddi4+0x90>
 8000490:	4548      	cmp	r0, r9
 8000492:	d2a9      	bcs.n	80003e8 <__udivmoddi4+0x1f0>
 8000494:	ebb9 0802 	subs.w	r8, r9, r2
 8000498:	eb65 0e0c 	sbc.w	lr, r5, ip
 800049c:	3b01      	subs	r3, #1
 800049e:	e7a3      	b.n	80003e8 <__udivmoddi4+0x1f0>
 80004a0:	4645      	mov	r5, r8
 80004a2:	e7ea      	b.n	800047a <__udivmoddi4+0x282>
 80004a4:	462b      	mov	r3, r5
 80004a6:	e794      	b.n	80003d2 <__udivmoddi4+0x1da>
 80004a8:	4640      	mov	r0, r8
 80004aa:	e7d1      	b.n	8000450 <__udivmoddi4+0x258>
 80004ac:	46d0      	mov	r8, sl
 80004ae:	e77b      	b.n	80003a8 <__udivmoddi4+0x1b0>
 80004b0:	3d02      	subs	r5, #2
 80004b2:	4462      	add	r2, ip
 80004b4:	e732      	b.n	800031c <__udivmoddi4+0x124>
 80004b6:	4608      	mov	r0, r1
 80004b8:	e70a      	b.n	80002d0 <__udivmoddi4+0xd8>
 80004ba:	4464      	add	r4, ip
 80004bc:	3802      	subs	r0, #2
 80004be:	e742      	b.n	8000346 <__udivmoddi4+0x14e>

080004c0 <__aeabi_idiv0>:
 80004c0:	4770      	bx	lr
 80004c2:	bf00      	nop
 80004c4:	0000      	movs	r0, r0
	...

080004c8 <SystemClock_Config>:
/**
  * @brief System Clock Configuration
  * @retval None
  */
void SystemClock_Config(void)
{
 80004c8:	b510      	push	{r4, lr}
  RCC_OscInitTypeDef RCC_OscInitStruct = {0};
 80004ca:	2300      	movs	r3, #0
{
 80004cc:	b094      	sub	sp, #80	; 0x50
  RCC_OscInitTypeDef RCC_OscInitStruct = {0};
 80004ce:	e9cd 330a 	strd	r3, r3, [sp, #40]	; 0x28
  RCC_ClkInitTypeDef RCC_ClkInitStruct = {0};
 80004d2:	e9cd 3303 	strd	r3, r3, [sp, #12]
 80004d6:	e9cd 3305 	strd	r3, r3, [sp, #20]

  /** Configure the main internal regulator output voltage
  */
  __HAL_RCC_PWR_CLK_ENABLE();
 80004da:	4925      	ldr	r1, [pc, #148]	; (8000570 <SystemClock_Config+0xa8>)
 80004dc:	9301      	str	r3, [sp, #4]
  RCC_OscInitTypeDef RCC_OscInitStruct = {0};
 80004de:	930c      	str	r3, [sp, #48]	; 0x30
 80004e0:	9309      	str	r3, [sp, #36]	; 0x24
 80004e2:	930d      	str	r3, [sp, #52]	; 0x34
  RCC_ClkInitTypeDef RCC_ClkInitStruct = {0};
 80004e4:	9307      	str	r3, [sp, #28]
  __HAL_RCC_PWR_CLK_ENABLE();
 80004e6:	6c08      	ldr	r0, [r1, #64]	; 0x40
  __HAL_PWR_VOLTAGESCALING_CONFIG(PWR_REGULATOR_VOLTAGE_SCALE1);
 80004e8:	4a22      	ldr	r2, [pc, #136]	; (8000574 <SystemClock_Config+0xac>)
  __HAL_RCC_PWR_CLK_ENABLE();
 80004ea:	f040 5080 	orr.w	r0, r0, #268435456	; 0x10000000
 80004ee:	6408      	str	r0, [r1, #64]	; 0x40
 80004f0:	6c09      	ldr	r1, [r1, #64]	; 0x40
 80004f2:	f001 5180 	and.w	r1, r1, #268435456	; 0x10000000
 80004f6:	9101      	str	r1, [sp, #4]
 80004f8:	9901      	ldr	r1, [sp, #4]
  __HAL_PWR_VOLTAGESCALING_CONFIG(PWR_REGULATOR_VOLTAGE_SCALE1);
 80004fa:	9302      	str	r3, [sp, #8]
 80004fc:	6811      	ldr	r1, [r2, #0]
 80004fe:	f441 4180 	orr.w	r1, r1, #16384	; 0x4000
 8000502:	6011      	str	r1, [r2, #0]
 8000504:	6812      	ldr	r2, [r2, #0]
  RCC_OscInitStruct.OscillatorType = RCC_OSCILLATORTYPE_HSI|RCC_OSCILLATORTYPE_LSE;
  RCC_OscInitStruct.LSEState = RCC_LSE_ON;
  RCC_OscInitStruct.HSIState = RCC_HSI_ON;
  RCC_OscInitStruct.HSICalibrationValue = RCC_HSICALIBRATION_DEFAULT;
  RCC_OscInitStruct.PLL.PLLState = RCC_PLL_ON;
  RCC_OscInitStruct.PLL.PLLSource = RCC_PLLSOURCE_HSI;
 8000506:	930f      	str	r3, [sp, #60]	; 0x3c
  __HAL_PWR_VOLTAGESCALING_CONFIG(PWR_REGULATOR_VOLTAGE_SCALE1);
 8000508:	f402 4280 	and.w	r2, r2, #16384	; 0x4000
  RCC_OscInitStruct.HSICalibrationValue = RCC_HSICALIBRATION_DEFAULT;
 800050c:	2310      	movs	r3, #16
  RCC_OscInitStruct.LSEState = RCC_LSE_ON;
 800050e:	ed9f 7b16 	vldr	d7, [pc, #88]	; 8000568 <SystemClock_Config+0xa0>
  RCC_OscInitStruct.OscillatorType = RCC_OSCILLATORTYPE_HSI|RCC_OSCILLATORTYPE_LSE;
 8000512:	2006      	movs	r0, #6
  __HAL_PWR_VOLTAGESCALING_CONFIG(PWR_REGULATOR_VOLTAGE_SCALE1);
 8000514:	9202      	str	r2, [sp, #8]
  RCC_OscInitStruct.HSICalibrationValue = RCC_HSICALIBRATION_DEFAULT;
 8000516:	930c      	str	r3, [sp, #48]	; 0x30
  RCC_OscInitStruct.PLL.PLLM = 8;
 8000518:	2208      	movs	r2, #8
  RCC_OscInitStruct.PLL.PLLN = 64;
 800051a:	2340      	movs	r3, #64	; 0x40
 800051c:	e9cd 2310 	strd	r2, r3, [sp, #64]	; 0x40
  RCC_OscInitStruct.PLL.PLLState = RCC_PLL_ON;
 8000520:	2402      	movs	r4, #2
  RCC_OscInitStruct.OscillatorType = RCC_OSCILLATORTYPE_HSI|RCC_OSCILLATORTYPE_LSE;
 8000522:	9008      	str	r0, [sp, #32]
  RCC_OscInitStruct.PLL.PLLP = RCC_PLLP_DIV2;
 8000524:	2202      	movs	r2, #2
 8000526:	2304      	movs	r3, #4
  RCC_OscInitStruct.PLL.PLLQ = 4;
  if (HAL_RCC_OscConfig(&RCC_OscInitStruct) != HAL_OK)
 8000528:	a808      	add	r0, sp, #32
  RCC_OscInitStruct.LSEState = RCC_LSE_ON;
 800052a:	ed8d 7b0a 	vstr	d7, [sp, #40]	; 0x28
  RCC_OscInitStruct.PLL.PLLP = RCC_PLLP_DIV2;
 800052e:	e9cd 2312 	strd	r2, r3, [sp, #72]	; 0x48
  __HAL_PWR_VOLTAGESCALING_CONFIG(PWR_REGULATOR_VOLTAGE_SCALE1);
 8000532:	9902      	ldr	r1, [sp, #8]
  RCC_OscInitStruct.PLL.PLLState = RCC_PLL_ON;
 8000534:	940e      	str	r4, [sp, #56]	; 0x38
  if (HAL_RCC_OscConfig(&RCC_OscInitStruct) != HAL_OK)
 8000536:	f001 ffdd 	bl	80024f4 <HAL_RCC_OscConfig>
 800053a:	b108      	cbz	r0, 8000540 <SystemClock_Config+0x78>
  \details Disables IRQ interrupts by setting special-purpose register PRIMASK.
           Can only be executed in Privileged modes.
 */
__STATIC_FORCEINLINE void __disable_irq(void)
{
  __ASM volatile ("cpsid i" : : : "memory");
 800053c:	b672      	cpsid	i
void Error_Handler(void)
{
  /* USER CODE BEGIN Error_Handler_Debug */
  /* User can add his own implementation to report the HAL error return state */
  __disable_irq();
  while (1)
 800053e:	e7fe      	b.n	800053e <SystemClock_Config+0x76>
  RCC_ClkInitStruct.ClockType = RCC_CLOCKTYPE_HCLK|RCC_CLOCKTYPE_SYSCLK
 8000540:	210f      	movs	r1, #15
 8000542:	4603      	mov	r3, r0
  RCC_ClkInitStruct.SYSCLKSource = RCC_SYSCLKSOURCE_PLLCLK;
 8000544:	e9cd 1403 	strd	r1, r4, [sp, #12]
  RCC_ClkInitStruct.APB1CLKDivider = RCC_HCLK_DIV2;
 8000548:	f44f 5280 	mov.w	r2, #4096	; 0x1000
  if (HAL_RCC_ClockConfig(&RCC_ClkInitStruct, FLASH_LATENCY_2) != HAL_OK)
 800054c:	a803      	add	r0, sp, #12
 800054e:	4621      	mov	r1, r4
  RCC_ClkInitStruct.APB1CLKDivider = RCC_HCLK_DIV2;
 8000550:	e9cd 3205 	strd	r3, r2, [sp, #20]
  RCC_ClkInitStruct.APB2CLKDivider = RCC_HCLK_DIV1;
 8000554:	9307      	str	r3, [sp, #28]
  if (HAL_RCC_ClockConfig(&RCC_ClkInitStruct, FLASH_LATENCY_2) != HAL_OK)
 8000556:	f002 f9e5 	bl	8002924 <HAL_RCC_ClockConfig>
 800055a:	b108      	cbz	r0, 8000560 <SystemClock_Config+0x98>
 800055c:	b672      	cpsid	i
  while (1)
 800055e:	e7fe      	b.n	800055e <SystemClock_Config+0x96>
}
 8000560:	b014      	add	sp, #80	; 0x50
 8000562:	bd10      	pop	{r4, pc}
 8000564:	f3af 8000 	nop.w
 8000568:	00000001 	.word	0x00000001
 800056c:	00000001 	.word	0x00000001
 8000570:	40023800 	.word	0x40023800
 8000574:	40007000 	.word	0x40007000

08000578 <main>:
{
 8000578:	e92d 4ff0 	stmdb	sp!, {r4, r5, r6, r7, r8, r9, sl, fp, lr}
  GPIO_InitTypeDef GPIO_InitStruct = {0};
 800057c:	2400      	movs	r4, #0
{
 800057e:	b091      	sub	sp, #68	; 0x44
  HAL_Init();
 8000580:	f001 fddc 	bl	800213c <HAL_Init>
  SystemClock_Config();
 8000584:	f7ff ffa0 	bl	80004c8 <SystemClock_Config>
  GPIO_InitTypeDef GPIO_InitStruct = {0};
 8000588:	e9cd 4409 	strd	r4, r4, [sp, #36]	; 0x24
 800058c:	e9cd 440b 	strd	r4, r4, [sp, #44]	; 0x2c
  __HAL_RCC_GPIOC_CLK_ENABLE();
 8000590:	4b73      	ldr	r3, [pc, #460]	; (8000760 <main+0x1e8>)
 8000592:	9405      	str	r4, [sp, #20]
  GPIO_InitTypeDef GPIO_InitStruct = {0};
 8000594:	940d      	str	r4, [sp, #52]	; 0x34
  __HAL_RCC_GPIOC_CLK_ENABLE();
 8000596:	6b19      	ldr	r1, [r3, #48]	; 0x30
  HAL_GPIO_WritePin(GPIOA, D2_Pin|D3_Pin, GPIO_PIN_SET);
 8000598:	4872      	ldr	r0, [pc, #456]	; (8000764 <main+0x1ec>)
  __HAL_RCC_GPIOC_CLK_ENABLE();
 800059a:	f041 0104 	orr.w	r1, r1, #4
 800059e:	6319      	str	r1, [r3, #48]	; 0x30
 80005a0:	6b19      	ldr	r1, [r3, #48]	; 0x30
 80005a2:	f001 0104 	and.w	r1, r1, #4
 80005a6:	9105      	str	r1, [sp, #20]
 80005a8:	9905      	ldr	r1, [sp, #20]
  __HAL_RCC_GPIOA_CLK_ENABLE();
 80005aa:	9406      	str	r4, [sp, #24]
 80005ac:	6b19      	ldr	r1, [r3, #48]	; 0x30
  HAL_GPIO_WritePin(GPIOA, D2_Pin|D3_Pin, GPIO_PIN_SET);
 80005ae:	2201      	movs	r2, #1
  __HAL_RCC_GPIOA_CLK_ENABLE();
 80005b0:	4311      	orrs	r1, r2
 80005b2:	6319      	str	r1, [r3, #48]	; 0x30
 80005b4:	6b19      	ldr	r1, [r3, #48]	; 0x30
 80005b6:	4011      	ands	r1, r2
 80005b8:	9106      	str	r1, [sp, #24]
 80005ba:	9906      	ldr	r1, [sp, #24]
  __HAL_RCC_GPIOE_CLK_ENABLE();
 80005bc:	9407      	str	r4, [sp, #28]
 80005be:	6b19      	ldr	r1, [r3, #48]	; 0x30
 80005c0:	f041 0110 	orr.w	r1, r1, #16
 80005c4:	6319      	str	r1, [r3, #48]	; 0x30
 80005c6:	6b19      	ldr	r1, [r3, #48]	; 0x30
 80005c8:	f001 0110 	and.w	r1, r1, #16
 80005cc:	9107      	str	r1, [sp, #28]
 80005ce:	9907      	ldr	r1, [sp, #28]
  __HAL_RCC_GPIOD_CLK_ENABLE();
 80005d0:	9408      	str	r4, [sp, #32]
 80005d2:	6b19      	ldr	r1, [r3, #48]	; 0x30
 80005d4:	f041 0108 	orr.w	r1, r1, #8
 80005d8:	6319      	str	r1, [r3, #48]	; 0x30
 80005da:	6b1b      	ldr	r3, [r3, #48]	; 0x30
 80005dc:	f003 0308 	and.w	r3, r3, #8
 80005e0:	9308      	str	r3, [sp, #32]
  HAL_GPIO_WritePin(GPIOA, D2_Pin|D3_Pin, GPIO_PIN_SET);
 80005e2:	21c0      	movs	r1, #192	; 0xc0
  __HAL_RCC_GPIOD_CLK_ENABLE();
 80005e4:	9b08      	ldr	r3, [sp, #32]
  GPIO_InitStruct.Mode = GPIO_MODE_OUTPUT_PP;
 80005e6:	2501      	movs	r5, #1
  HAL_GPIO_WritePin(GPIOA, D2_Pin|D3_Pin, GPIO_PIN_SET);
 80005e8:	f001 ff72 	bl	80024d0 <HAL_GPIO_WritePin>
  GPIO_InitStruct.Pin = D2_Pin|D3_Pin;
 80005ec:	23c0      	movs	r3, #192	; 0xc0
  HAL_GPIO_Init(GPIOA, &GPIO_InitStruct);
 80005ee:	485d      	ldr	r0, [pc, #372]	; (8000764 <main+0x1ec>)
 80005f0:	a909      	add	r1, sp, #36	; 0x24
  GPIO_InitStruct.Mode = GPIO_MODE_OUTPUT_PP;
 80005f2:	e9cd 3509 	strd	r3, r5, [sp, #36]	; 0x24
  GPIO_InitStruct.Speed = GPIO_SPEED_FREQ_LOW;
 80005f6:	e9cd 440b 	strd	r4, r4, [sp, #44]	; 0x2c
  HAL_GPIO_Init(GPIOA, &GPIO_InitStruct);
 80005fa:	f001 fe47 	bl	800228c <HAL_GPIO_Init>
  hsram1.Instance = FSMC_NORSRAM_DEVICE;
 80005fe:	485a      	ldr	r0, [pc, #360]	; (8000768 <main+0x1f0>)
  FSMC_NORSRAM_TimingTypeDef Timing = {0};
 8000600:	940f      	str	r4, [sp, #60]	; 0x3c
  hsram1.Instance = FSMC_NORSRAM_DEVICE;
 8000602:	f04f 4320 	mov.w	r3, #2684354560	; 0xa0000000
 8000606:	6003      	str	r3, [r0, #0]
  hsram1.Extended = FSMC_NORSRAM_EXTENDED_DEVICE;
 8000608:	f503 7382 	add.w	r3, r3, #260	; 0x104
 800060c:	6043      	str	r3, [r0, #4]
  hsram1.Init.MemoryDataWidth = FSMC_NORSRAM_MEM_BUS_WIDTH_16;
 800060e:	2310      	movs	r3, #16
 8000610:	e9c0 4304 	strd	r4, r3, [r0, #16]
  hsram1.Init.WriteOperation = FSMC_WRITE_OPERATION_ENABLE;
 8000614:	f44f 5380 	mov.w	r3, #4096	; 0x1000
 8000618:	6283      	str	r3, [r0, #40]	; 0x28
  Timing.AddressSetupTime = 5;
 800061a:	2305      	movs	r3, #5
 800061c:	9309      	str	r3, [sp, #36]	; 0x24
  Timing.AddressHoldTime = 2;
 800061e:	2302      	movs	r3, #2
  Timing.CLKDivision = 2;
 8000620:	e9cd 530c 	strd	r5, r3, [sp, #48]	; 0x30
  Timing.AddressHoldTime = 2;
 8000624:	930a      	str	r3, [sp, #40]	; 0x28
  Timing.DataLatency = 2;
 8000626:	930e      	str	r3, [sp, #56]	; 0x38
  if (HAL_SRAM_Init(&hsram1, &Timing, NULL) != HAL_OK)
 8000628:	4622      	mov	r2, r4
  Timing.DataSetupTime = 10;
 800062a:	230a      	movs	r3, #10
  if (HAL_SRAM_Init(&hsram1, &Timing, NULL) != HAL_OK)
 800062c:	a909      	add	r1, sp, #36	; 0x24
  hsram1.Init.DataAddressMux = FSMC_DATA_ADDRESS_MUX_DISABLE;
 800062e:	e9c0 4402 	strd	r4, r4, [r0, #8]
  hsram1.Init.WaitSignalPolarity = FSMC_WAIT_SIGNAL_POLARITY_LOW;
 8000632:	e9c0 4406 	strd	r4, r4, [r0, #24]
  hsram1.Init.WaitSignalActive = FSMC_WAIT_TIMING_BEFORE_WS;
 8000636:	e9c0 4408 	strd	r4, r4, [r0, #32]
  hsram1.Init.ExtendedMode = FSMC_EXTENDED_MODE_DISABLE;
 800063a:	e9c0 440b 	strd	r4, r4, [r0, #44]	; 0x2c
  hsram1.Init.WriteBurst = FSMC_WRITE_BURST_DISABLE;
 800063e:	e9c0 440d 	strd	r4, r4, [r0, #52]	; 0x34
  hsram1.Init.PageSize = FSMC_PAGE_SIZE_NONE;
 8000642:	6444      	str	r4, [r0, #68]	; 0x44
  Timing.DataSetupTime = 10;
 8000644:	930b      	str	r3, [sp, #44]	; 0x2c
  if (HAL_SRAM_Init(&hsram1, &Timing, NULL) != HAL_OK)
 8000646:	f003 f84b 	bl	80036e0 <HAL_SRAM_Init>
 800064a:	b108      	cbz	r0, 8000650 <main+0xd8>
 800064c:	b672      	cpsid	i
  while (1)
 800064e:	e7fe      	b.n	800064e <main+0xd6>
  hrtc.Instance = RTC;
 8000650:	4c46      	ldr	r4, [pc, #280]	; (800076c <main+0x1f4>)
 8000652:	4a47      	ldr	r2, [pc, #284]	; (8000770 <main+0x1f8>)
 8000654:	6022      	str	r2, [r4, #0]
  hrtc.Init.AsynchPrediv = 127;
 8000656:	227f      	movs	r2, #127	; 0x7f
 8000658:	4603      	mov	r3, r0
 800065a:	e9c4 0201 	strd	r0, r2, [r4, #4]
  RTC_TimeTypeDef sTime = {0};
 800065e:	e9cd 0009 	strd	r0, r0, [sp, #36]	; 0x24
 8000662:	e9cd 000b 	strd	r0, r0, [sp, #44]	; 0x2c
 8000666:	900d      	str	r0, [sp, #52]	; 0x34
  RTC_DateTypeDef sDate = {0};
 8000668:	9004      	str	r0, [sp, #16]
  hrtc.Init.SynchPrediv = 255;
 800066a:	22ff      	movs	r2, #255	; 0xff
  if (HAL_RTC_Init(&hrtc) != HAL_OK)
 800066c:	4620      	mov	r0, r4
  hrtc.Init.OutPutPolarity = RTC_OUTPUT_POLARITY_HIGH;
 800066e:	e9c4 3304 	strd	r3, r3, [r4, #16]
  hrtc.Init.SynchPrediv = 255;
 8000672:	60e2      	str	r2, [r4, #12]
  hrtc.Init.OutPutType = RTC_OUTPUT_TYPE_OPENDRAIN;
 8000674:	61a3      	str	r3, [r4, #24]
  if (HAL_RTC_Init(&hrtc) != HAL_OK)
 8000676:	f002 fa93 	bl	8002ba0 <HAL_RTC_Init>
 800067a:	4606      	mov	r6, r0
 800067c:	b108      	cbz	r0, 8000682 <main+0x10a>
 800067e:	b672      	cpsid	i
  while (1)
 8000680:	e7fe      	b.n	8000680 <main+0x108>
  HAL_PWR_EnableBkUpAccess();
 8000682:	f001 ff29 	bl	80024d8 <HAL_PWR_EnableBkUpAccess>
    if (HAL_RTCEx_BKUPRead(&hrtc, RTC_BKP_DR0) == 0xA5A5)
 8000686:	4631      	mov	r1, r6
 8000688:	4620      	mov	r0, r4
 800068a:	f003 f801 	bl	8003690 <HAL_RTCEx_BKUPRead>
 800068e:	f24a 53a5 	movw	r3, #42405	; 0xa5a5
 8000692:	4298      	cmp	r0, r3
 8000694:	d00f      	beq.n	80006b6 <main+0x13e>
  if (HAL_RTC_SetTime(&hrtc, &sTime, RTC_FORMAT_BCD) != HAL_OK)
 8000696:	462a      	mov	r2, r5
 8000698:	a909      	add	r1, sp, #36	; 0x24
 800069a:	4620      	mov	r0, r4
  sTime.StoreOperation = RTC_STOREOPERATION_RESET;
 800069c:	e9cd 660c 	strd	r6, r6, [sp, #48]	; 0x30
  sTime.Hours = 0x0;
 80006a0:	f8ad 6024 	strh.w	r6, [sp, #36]	; 0x24
  sTime.Seconds = 0x0;
 80006a4:	f88d 6026 	strb.w	r6, [sp, #38]	; 0x26
  if (HAL_RTC_SetTime(&hrtc, &sTime, RTC_FORMAT_BCD) != HAL_OK)
 80006a8:	f002 faf0 	bl	8002c8c <HAL_RTC_SetTime>
 80006ac:	2800      	cmp	r0, #0
 80006ae:	f000 82b7 	beq.w	8000c20 <main+0x6a8>
 80006b2:	b672      	cpsid	i
  while (1)
 80006b4:	e7fe      	b.n	80006b4 <main+0x13c>
      HAL_GPIO_WritePin(D2_GPIO_Port, D2_Pin, GPIO_PIN_RESET);
 80006b6:	4d2b      	ldr	r5, [pc, #172]	; (8000764 <main+0x1ec>)
      return;
 80006b8:	2405      	movs	r4, #5
      HAL_GPIO_WritePin(D2_GPIO_Port, D2_Pin, GPIO_PIN_RESET);
 80006ba:	2200      	movs	r2, #0
 80006bc:	2140      	movs	r1, #64	; 0x40
 80006be:	4628      	mov	r0, r5
 80006c0:	f001 ff06 	bl	80024d0 <HAL_GPIO_WritePin>
      HAL_Delay(100);
 80006c4:	2064      	movs	r0, #100	; 0x64
 80006c6:	f001 fd65 	bl	8002194 <HAL_Delay>
      HAL_GPIO_WritePin(D2_GPIO_Port, D2_Pin, GPIO_PIN_SET);
 80006ca:	4628      	mov	r0, r5
 80006cc:	2201      	movs	r2, #1
 80006ce:	2140      	movs	r1, #64	; 0x40
 80006d0:	f001 fefe 	bl	80024d0 <HAL_GPIO_WritePin>
      HAL_Delay(100);
 80006d4:	2064      	movs	r0, #100	; 0x64
 80006d6:	f001 fd5d 	bl	8002194 <HAL_Delay>
  for (int i = 0; i < 5; i++)
 80006da:	3c01      	subs	r4, #1
 80006dc:	d1ed      	bne.n	80006ba <main+0x142>
  HAL_Delay(100);
 80006de:	2064      	movs	r0, #100	; 0x64
 80006e0:	f001 fd58 	bl	8002194 <HAL_Delay>
  MD_Init();
 80006e4:	f000 fab4 	bl	8000c50 <MD_Init>
  HAL_Delay(100);
 80006e8:	2064      	movs	r0, #100	; 0x64
 80006ea:	f001 fd53 	bl	8002194 <HAL_Delay>
        HAL_GPIO_WritePin(port, pin, GPIO_PIN_RESET);
 80006ee:	4c1d      	ldr	r4, [pc, #116]	; (8000764 <main+0x1ec>)
 80006f0:	2200      	movs	r2, #0
 80006f2:	2140      	movs	r1, #64	; 0x40
 80006f4:	4620      	mov	r0, r4
 80006f6:	f001 feeb 	bl	80024d0 <HAL_GPIO_WritePin>
        HAL_Delay(300);
 80006fa:	f44f 7096 	mov.w	r0, #300	; 0x12c
 80006fe:	f001 fd49 	bl	8002194 <HAL_Delay>
        HAL_GPIO_WritePin(port, pin, GPIO_PIN_SET);
 8000702:	2201      	movs	r2, #1
 8000704:	2140      	movs	r1, #64	; 0x40
 8000706:	4620      	mov	r0, r4
 8000708:	f001 fee2 	bl	80024d0 <HAL_GPIO_WritePin>
        HAL_Delay(300);
 800070c:	f44f 7096 	mov.w	r0, #300	; 0x12c
 8000710:	f001 fd40 	bl	8002194 <HAL_Delay>
    HAL_Delay(500);
 8000714:	f44f 70fa 	mov.w	r0, #500	; 0x1f4
 8000718:	f001 fd3c 	bl	8002194 <HAL_Delay>
	     MD_FillScreen(COLOR_RED);
 800071c:	f44f 4078 	mov.w	r0, #63488	; 0xf800
 8000720:	f000 fb56 	bl	8000dd0 <MD_FillScreen>
	     HAL_Delay(1000);
 8000724:	f44f 707a 	mov.w	r0, #1000	; 0x3e8
 8000728:	f001 fd34 	bl	8002194 <HAL_Delay>
	     MD_FillScreen(COLOR_GREEN);
 800072c:	f44f 60fc 	mov.w	r0, #2016	; 0x7e0
 8000730:	f000 fb4e 	bl	8000dd0 <MD_FillScreen>
	     HAL_Delay(1000);
 8000734:	f44f 707a 	mov.w	r0, #1000	; 0x3e8
 8000738:	f001 fd2c 	bl	8002194 <HAL_Delay>
	     MD_FillScreen(COLOR_BLUE);
 800073c:	201f      	movs	r0, #31
 800073e:	f000 fb47 	bl	8000dd0 <MD_FillScreen>
	     HAL_Delay(1000);
 8000742:	f44f 707a 	mov.w	r0, #1000	; 0x3e8
 8000746:	f001 fd25 	bl	8002194 <HAL_Delay>
	     MD_FillScreen(COLOR_WHITE);
 800074a:	f64f 70ff 	movw	r0, #65535	; 0xffff
 800074e:	f000 fb3f 	bl	8000dd0 <MD_FillScreen>
	     HAL_Delay(1000);
 8000752:	f44f 707a 	mov.w	r0, #1000	; 0x3e8
 8000756:	f001 fd1d 	bl	8002194 <HAL_Delay>
 800075a:	2502      	movs	r5, #2
 800075c:	e00b      	b.n	8000776 <main+0x1fe>
 800075e:	bf00      	nop
 8000760:	40023800 	.word	0x40023800
 8000764:	40020000 	.word	0x40020000
 8000768:	20000048 	.word	0x20000048
 800076c:	20000028 	.word	0x20000028
 8000770:	40002800 	.word	0x40002800
 8000774:	2501      	movs	r5, #1
        HAL_GPIO_WritePin(port, pin, GPIO_PIN_RESET);
 8000776:	2200      	movs	r2, #0
 8000778:	2140      	movs	r1, #64	; 0x40
 800077a:	4620      	mov	r0, r4
 800077c:	f001 fea8 	bl	80024d0 <HAL_GPIO_WritePin>
        HAL_Delay(300);
 8000780:	f44f 7096 	mov.w	r0, #300	; 0x12c
 8000784:	f001 fd06 	bl	8002194 <HAL_Delay>
        HAL_GPIO_WritePin(port, pin, GPIO_PIN_SET);
 8000788:	4620      	mov	r0, r4
 800078a:	2201      	movs	r2, #1
 800078c:	2140      	movs	r1, #64	; 0x40
 800078e:	f001 fe9f 	bl	80024d0 <HAL_GPIO_WritePin>
        HAL_Delay(300);
 8000792:	f44f 7096 	mov.w	r0, #300	; 0x12c
 8000796:	f001 fcfd 	bl	8002194 <HAL_Delay>
    for (uint8_t i = 0; i < count; i++)
 800079a:	2d01      	cmp	r5, #1
 800079c:	d1ea      	bne.n	8000774 <main+0x1fc>
    HAL_Delay(500);
 800079e:	f44f 70fa 	mov.w	r0, #500	; 0x1f4
 80007a2:	f001 fcf7 	bl	8002194 <HAL_Delay>
	     MD_FillScreen(COLOR_BLACK);
 80007a6:	2000      	movs	r0, #0
 80007a8:	f000 fb12 	bl	8000dd0 <MD_FillScreen>
	     MD_DrawRect(0, 0, 799, 480, COLOR_WHITE);
 80007ac:	f64f 75ff 	movw	r5, #65535	; 0xffff
 80007b0:	2100      	movs	r1, #0
 80007b2:	4608      	mov	r0, r1
 80007b4:	f44f 73f0 	mov.w	r3, #480	; 0x1e0
 80007b8:	f240 321f 	movw	r2, #799	; 0x31f
 80007bc:	9500      	str	r5, [sp, #0]
 80007be:	f000 fc6f 	bl	80010a0 <MD_DrawRect>
	     HAL_Delay(3000);
 80007c2:	f640 30b8 	movw	r0, #3000	; 0xbb8
 80007c6:	f001 fce5 	bl	8002194 <HAL_Delay>
 80007ca:	2503      	movs	r5, #3
        HAL_GPIO_WritePin(port, pin, GPIO_PIN_RESET);
 80007cc:	2200      	movs	r2, #0
 80007ce:	2140      	movs	r1, #64	; 0x40
 80007d0:	4620      	mov	r0, r4
 80007d2:	f001 fe7d 	bl	80024d0 <HAL_GPIO_WritePin>
        HAL_Delay(300);
 80007d6:	f44f 7096 	mov.w	r0, #300	; 0x12c
 80007da:	f001 fcdb 	bl	8002194 <HAL_Delay>
        HAL_GPIO_WritePin(port, pin, GPIO_PIN_SET);
 80007de:	2201      	movs	r2, #1
 80007e0:	2140      	movs	r1, #64	; 0x40
 80007e2:	4620      	mov	r0, r4
 80007e4:	f001 fe74 	bl	80024d0 <HAL_GPIO_WritePin>
    for (uint8_t i = 0; i < count; i++)
 80007e8:	3d01      	subs	r5, #1
        HAL_Delay(300);
 80007ea:	f44f 7096 	mov.w	r0, #300	; 0x12c
 80007ee:	f001 fcd1 	bl	8002194 <HAL_Delay>
    for (uint8_t i = 0; i < count; i++)
 80007f2:	f015 05ff 	ands.w	r5, r5, #255	; 0xff
 80007f6:	d1e9      	bne.n	80007cc <main+0x254>
    HAL_Delay(500);
 80007f8:	f44f 70fa 	mov.w	r0, #500	; 0x1f4
 80007fc:	f001 fcca 	bl	8002194 <HAL_Delay>
	     MD_DrawRect(0, 0, 799, 480, COLOR_RED);
 8000800:	f44f 4678 	mov.w	r6, #63488	; 0xf800
	     MD_FillScreen(COLOR_BLACK);
 8000804:	4628      	mov	r0, r5
 8000806:	f000 fae3 	bl	8000dd0 <MD_FillScreen>
	     MD_DrawRect(0, 0, 799, 480, COLOR_RED);
 800080a:	4629      	mov	r1, r5
 800080c:	4628      	mov	r0, r5
 800080e:	f44f 73f0 	mov.w	r3, #480	; 0x1e0
 8000812:	f240 321f 	movw	r2, #799	; 0x31f
 8000816:	9600      	str	r6, [sp, #0]
 8000818:	f000 fc42 	bl	80010a0 <MD_DrawRect>
	     MD_DrawRect(50, 50, 700, 380, COLOR_GREEN);
 800081c:	f44f 65fc 	mov.w	r5, #2016	; 0x7e0
 8000820:	2132      	movs	r1, #50	; 0x32
 8000822:	4608      	mov	r0, r1
 8000824:	f44f 73be 	mov.w	r3, #380	; 0x17c
 8000828:	f44f 722f 	mov.w	r2, #700	; 0x2bc
 800082c:	9500      	str	r5, [sp, #0]
 800082e:	f000 fc37 	bl	80010a0 <MD_DrawRect>
	     MD_DrawRect(100, 100, 600, 280, COLOR_BLUE);
 8000832:	251f      	movs	r5, #31
 8000834:	2164      	movs	r1, #100	; 0x64
 8000836:	4608      	mov	r0, r1
 8000838:	f44f 738c 	mov.w	r3, #280	; 0x118
 800083c:	f44f 7216 	mov.w	r2, #600	; 0x258
 8000840:	9500      	str	r5, [sp, #0]
 8000842:	f000 fc2d 	bl	80010a0 <MD_DrawRect>
	     HAL_Delay(3000);
 8000846:	f640 30b8 	movw	r0, #3000	; 0xbb8
 800084a:	f001 fca3 	bl	8002194 <HAL_Delay>
 800084e:	2504      	movs	r5, #4
        HAL_GPIO_WritePin(port, pin, GPIO_PIN_RESET);
 8000850:	2200      	movs	r2, #0
 8000852:	2140      	movs	r1, #64	; 0x40
 8000854:	4620      	mov	r0, r4
 8000856:	f001 fe3b 	bl	80024d0 <HAL_GPIO_WritePin>
        HAL_Delay(300);
 800085a:	f44f 7096 	mov.w	r0, #300	; 0x12c
 800085e:	f001 fc99 	bl	8002194 <HAL_Delay>
        HAL_GPIO_WritePin(port, pin, GPIO_PIN_SET);
 8000862:	2201      	movs	r2, #1
 8000864:	2140      	movs	r1, #64	; 0x40
 8000866:	4620      	mov	r0, r4
 8000868:	f001 fe32 	bl	80024d0 <HAL_GPIO_WritePin>
    for (uint8_t i = 0; i < count; i++)
 800086c:	3d01      	subs	r5, #1
        HAL_Delay(300);
 800086e:	f44f 7096 	mov.w	r0, #300	; 0x12c
 8000872:	f001 fc8f 	bl	8002194 <HAL_Delay>
    for (uint8_t i = 0; i < count; i++)
 8000876:	f015 05ff 	ands.w	r5, r5, #255	; 0xff
 800087a:	d1e9      	bne.n	8000850 <main+0x2d8>
    HAL_Delay(500);
 800087c:	f44f 70fa 	mov.w	r0, #500	; 0x1f4
 8000880:	f001 fc88 	bl	8002194 <HAL_Delay>
	     MD_FillScreen(COLOR_BLACK);
 8000884:	4628      	mov	r0, r5
 8000886:	f000 faa3 	bl	8000dd0 <MD_FillScreen>
	     MD_FillRect(50, 50, 200, 150, COLOR_RED);
 800088a:	f44f 4578 	mov.w	r5, #63488	; 0xf800
 800088e:	2132      	movs	r1, #50	; 0x32
 8000890:	4608      	mov	r0, r1
 8000892:	2396      	movs	r3, #150	; 0x96
 8000894:	22c8      	movs	r2, #200	; 0xc8
 8000896:	9500      	str	r5, [sp, #0]
 8000898:	f000 fd0e 	bl	80012b8 <MD_FillRect>
	     MD_FillRect(300, 150, 200, 200, COLOR_GREEN);
 800089c:	f44f 65fc 	mov.w	r5, #2016	; 0x7e0
 80008a0:	23c8      	movs	r3, #200	; 0xc8
 80008a2:	461a      	mov	r2, r3
 80008a4:	2196      	movs	r1, #150	; 0x96
 80008a6:	f44f 7096 	mov.w	r0, #300	; 0x12c
 80008aa:	9500      	str	r5, [sp, #0]
	     MD_FillRect(550, 100, 200, 300, COLOR_BLUE);
 80008ac:	251f      	movs	r5, #31
	     MD_FillRect(300, 150, 200, 200, COLOR_GREEN);
 80008ae:	f000 fd03 	bl	80012b8 <MD_FillRect>
	     MD_FillRect(550, 100, 200, 300, COLOR_BLUE);
 80008b2:	f44f 7396 	mov.w	r3, #300	; 0x12c
 80008b6:	22c8      	movs	r2, #200	; 0xc8
 80008b8:	2164      	movs	r1, #100	; 0x64
 80008ba:	f240 2026 	movw	r0, #550	; 0x226
 80008be:	9500      	str	r5, [sp, #0]
 80008c0:	f000 fcfa 	bl	80012b8 <MD_FillRect>
	     HAL_Delay(3000);
 80008c4:	f640 30b8 	movw	r0, #3000	; 0xbb8
 80008c8:	f001 fc64 	bl	8002194 <HAL_Delay>
 80008cc:	2505      	movs	r5, #5
        HAL_GPIO_WritePin(port, pin, GPIO_PIN_RESET);
 80008ce:	2200      	movs	r2, #0
 80008d0:	2140      	movs	r1, #64	; 0x40
 80008d2:	4620      	mov	r0, r4
 80008d4:	f001 fdfc 	bl	80024d0 <HAL_GPIO_WritePin>
        HAL_Delay(300);
 80008d8:	f44f 7096 	mov.w	r0, #300	; 0x12c
 80008dc:	f001 fc5a 	bl	8002194 <HAL_Delay>
        HAL_GPIO_WritePin(port, pin, GPIO_PIN_SET);
 80008e0:	2201      	movs	r2, #1
 80008e2:	2140      	movs	r1, #64	; 0x40
 80008e4:	4620      	mov	r0, r4
 80008e6:	f001 fdf3 	bl	80024d0 <HAL_GPIO_WritePin>
    for (uint8_t i = 0; i < count; i++)
 80008ea:	3d01      	subs	r5, #1
        HAL_Delay(300);
 80008ec:	f44f 7096 	mov.w	r0, #300	; 0x12c
 80008f0:	f001 fc50 	bl	8002194 <HAL_Delay>
    for (uint8_t i = 0; i < count; i++)
 80008f4:	f015 05ff 	ands.w	r5, r5, #255	; 0xff
 80008f8:	d1e9      	bne.n	80008ce <main+0x356>
    HAL_Delay(500);
 80008fa:	f44f 70fa 	mov.w	r0, #500	; 0x1f4
 80008fe:	f001 fc49 	bl	8002194 <HAL_Delay>
	     MD_FillRect(0, 235, 800, 10, COLOR_WHITE);
 8000902:	f64f 76ff 	movw	r6, #65535	; 0xffff
	     MD_FillScreen(COLOR_BLACK);
 8000906:	4628      	mov	r0, r5
 8000908:	f000 fa62 	bl	8000dd0 <MD_FillScreen>
	     MD_FillRect(0, 235, 800, 10, COLOR_WHITE);
 800090c:	4628      	mov	r0, r5
 800090e:	230a      	movs	r3, #10
 8000910:	f44f 7248 	mov.w	r2, #800	; 0x320
 8000914:	21eb      	movs	r1, #235	; 0xeb
 8000916:	9600      	str	r6, [sp, #0]
 8000918:	f000 fcce 	bl	80012b8 <MD_FillRect>
	     MD_FillRect(395, 0, 10, 480, COLOR_WHITE);
 800091c:	4629      	mov	r1, r5
 800091e:	f44f 73f0 	mov.w	r3, #480	; 0x1e0
 8000922:	220a      	movs	r2, #10
 8000924:	f240 108b 	movw	r0, #395	; 0x18b
 8000928:	9600      	str	r6, [sp, #0]
 800092a:	f000 fcc5 	bl	80012b8 <MD_FillRect>
	     HAL_Delay(3000);
 800092e:	f640 30b8 	movw	r0, #3000	; 0xbb8
 8000932:	f001 fc2f 	bl	8002194 <HAL_Delay>
 8000936:	2506      	movs	r5, #6
        HAL_GPIO_WritePin(port, pin, GPIO_PIN_RESET);
 8000938:	2200      	movs	r2, #0
 800093a:	2140      	movs	r1, #64	; 0x40
 800093c:	4620      	mov	r0, r4
 800093e:	f001 fdc7 	bl	80024d0 <HAL_GPIO_WritePin>
        HAL_Delay(300);
 8000942:	f44f 7096 	mov.w	r0, #300	; 0x12c
 8000946:	f001 fc25 	bl	8002194 <HAL_Delay>
        HAL_GPIO_WritePin(port, pin, GPIO_PIN_SET);
 800094a:	2201      	movs	r2, #1
 800094c:	2140      	movs	r1, #64	; 0x40
 800094e:	4620      	mov	r0, r4
 8000950:	f001 fdbe 	bl	80024d0 <HAL_GPIO_WritePin>
    for (uint8_t i = 0; i < count; i++)
 8000954:	3d01      	subs	r5, #1
        HAL_Delay(300);
 8000956:	f44f 7096 	mov.w	r0, #300	; 0x12c
 800095a:	f001 fc1b 	bl	8002194 <HAL_Delay>
    for (uint8_t i = 0; i < count; i++)
 800095e:	f015 05ff 	ands.w	r5, r5, #255	; 0xff
 8000962:	d1e9      	bne.n	8000938 <main+0x3c0>
    HAL_Delay(500);
 8000964:	f44f 70fa 	mov.w	r0, #500	; 0x1f4
 8000968:	f001 fc14 	bl	8002194 <HAL_Delay>
	     MD_FillScreen(COLOR_BLUE);
 800096c:	201f      	movs	r0, #31
 800096e:	f000 fa2f 	bl	8000dd0 <MD_FillScreen>
	     for (int br = 16; br >= 0; br--)
 8000972:	2510      	movs	r5, #16
	         MD_SetBacklight(br);
 8000974:	b2a8      	uxth	r0, r5
 8000976:	f000 f9b3 	bl	8000ce0 <MD_SetBacklight>
	     for (int br = 16; br >= 0; br--)
 800097a:	3d01      	subs	r5, #1
	         HAL_Delay(100);
 800097c:	2064      	movs	r0, #100	; 0x64
 800097e:	f001 fc09 	bl	8002194 <HAL_Delay>
	     for (int br = 16; br >= 0; br--)
 8000982:	1c6b      	adds	r3, r5, #1
 8000984:	d1f6      	bne.n	8000974 <main+0x3fc>
	     for (int br = 0; br <= 16; br++)
 8000986:	2500      	movs	r5, #0
	         MD_SetBacklight(br);
 8000988:	b2a8      	uxth	r0, r5
 800098a:	f000 f9a9 	bl	8000ce0 <MD_SetBacklight>
	     for (int br = 0; br <= 16; br++)
 800098e:	3501      	adds	r5, #1
	         HAL_Delay(100);
 8000990:	2064      	movs	r0, #100	; 0x64
 8000992:	f001 fbff 	bl	8002194 <HAL_Delay>
	     for (int br = 0; br <= 16; br++)
 8000996:	2d11      	cmp	r5, #17
 8000998:	d1f6      	bne.n	8000988 <main+0x410>
	     HAL_Delay(1000);
 800099a:	f44f 707a 	mov.w	r0, #1000	; 0x3e8
 800099e:	f001 fbf9 	bl	8002194 <HAL_Delay>
 80009a2:	2507      	movs	r5, #7
        HAL_GPIO_WritePin(port, pin, GPIO_PIN_RESET);
 80009a4:	2200      	movs	r2, #0
 80009a6:	2140      	movs	r1, #64	; 0x40
 80009a8:	4620      	mov	r0, r4
 80009aa:	f001 fd91 	bl	80024d0 <HAL_GPIO_WritePin>
        HAL_Delay(300);
 80009ae:	f44f 7096 	mov.w	r0, #300	; 0x12c
 80009b2:	f001 fbef 	bl	8002194 <HAL_Delay>
        HAL_GPIO_WritePin(port, pin, GPIO_PIN_SET);
 80009b6:	2201      	movs	r2, #1
 80009b8:	2140      	movs	r1, #64	; 0x40
 80009ba:	4620      	mov	r0, r4
 80009bc:	f001 fd88 	bl	80024d0 <HAL_GPIO_WritePin>
    for (uint8_t i = 0; i < count; i++)
 80009c0:	3d01      	subs	r5, #1
        HAL_Delay(300);
 80009c2:	f44f 7096 	mov.w	r0, #300	; 0x12c
 80009c6:	f001 fbe5 	bl	8002194 <HAL_Delay>
    for (uint8_t i = 0; i < count; i++)
 80009ca:	f015 05ff 	ands.w	r5, r5, #255	; 0xff
 80009ce:	d1e9      	bne.n	80009a4 <main+0x42c>
    HAL_Delay(500);
 80009d0:	f44f 70fa 	mov.w	r0, #500	; 0x1f4
 80009d4:	f001 fbde 	bl	8002194 <HAL_Delay>
	     MD_FillRect(0, 0, 100, 120, COLOR_RED);
 80009d8:	f44f 4778 	mov.w	r7, #63488	; 0xf800
	     MD_FillScreen(COLOR_BLACK);
 80009dc:	4628      	mov	r0, r5
 80009de:	f000 f9f7 	bl	8000dd0 <MD_FillScreen>
	     MD_FillRect(0, 0, 100, 120, COLOR_RED);
 80009e2:	4629      	mov	r1, r5
 80009e4:	4628      	mov	r0, r5
 80009e6:	9700      	str	r7, [sp, #0]
 80009e8:	2378      	movs	r3, #120	; 0x78
 80009ea:	2264      	movs	r2, #100	; 0x64
 80009ec:	f000 fc64 	bl	80012b8 <MD_FillRect>
	     MD_FillRect(100, 0, 100, 120, COLOR_GREEN);
 80009f0:	f44f 69fc 	mov.w	r9, #2016	; 0x7e0
 80009f4:	2264      	movs	r2, #100	; 0x64
 80009f6:	4629      	mov	r1, r5
 80009f8:	4610      	mov	r0, r2
	     MD_FillRect(200, 0, 100, 120, COLOR_BLUE);
 80009fa:	f04f 0a1f 	mov.w	sl, #31
	     MD_FillRect(100, 0, 100, 120, COLOR_GREEN);
 80009fe:	f8cd 9000 	str.w	r9, [sp]
 8000a02:	2378      	movs	r3, #120	; 0x78
 8000a04:	f000 fc58 	bl	80012b8 <MD_FillRect>
	     MD_FillRect(200, 0, 100, 120, COLOR_BLUE);
 8000a08:	4629      	mov	r1, r5
 8000a0a:	f8cd a000 	str.w	sl, [sp]
 8000a0e:	2378      	movs	r3, #120	; 0x78
 8000a10:	2264      	movs	r2, #100	; 0x64
 8000a12:	20c8      	movs	r0, #200	; 0xc8
 8000a14:	f000 fc50 	bl	80012b8 <MD_FillRect>
	     MD_FillRect(300, 0, 100, 120, COLOR_YELLOW);
 8000a18:	f64f 73e0 	movw	r3, #65504	; 0xffe0
	     MD_FillRect(400, 0, 100, 120, COLOR_CYAN);
 8000a1c:	f240 78ff 	movw	r8, #2047	; 0x7ff
	     MD_FillRect(300, 0, 100, 120, COLOR_YELLOW);
 8000a20:	4629      	mov	r1, r5
 8000a22:	9300      	str	r3, [sp, #0]
 8000a24:	2264      	movs	r2, #100	; 0x64
 8000a26:	2378      	movs	r3, #120	; 0x78
 8000a28:	f44f 7096 	mov.w	r0, #300	; 0x12c
 8000a2c:	f000 fc44 	bl	80012b8 <MD_FillRect>
	     MD_FillRect(500, 0, 100, 120, COLOR_MAGENTA);
 8000a30:	f64f 0b1f 	movw	fp, #63519	; 0xf81f
	     MD_FillRect(400, 0, 100, 120, COLOR_CYAN);
 8000a34:	4629      	mov	r1, r5
 8000a36:	f8cd 8000 	str.w	r8, [sp]
 8000a3a:	2378      	movs	r3, #120	; 0x78
 8000a3c:	2264      	movs	r2, #100	; 0x64
 8000a3e:	f44f 70c8 	mov.w	r0, #400	; 0x190
 8000a42:	f000 fc39 	bl	80012b8 <MD_FillRect>
	     MD_FillRect(600, 0, 100, 120, COLOR_WHITE);
 8000a46:	f64f 76ff 	movw	r6, #65535	; 0xffff
	     MD_FillRect(500, 0, 100, 120, COLOR_MAGENTA);
 8000a4a:	4629      	mov	r1, r5
 8000a4c:	f8cd b000 	str.w	fp, [sp]
 8000a50:	2378      	movs	r3, #120	; 0x78
 8000a52:	2264      	movs	r2, #100	; 0x64
 8000a54:	f44f 70fa 	mov.w	r0, #500	; 0x1f4
 8000a58:	f000 fc2e 	bl	80012b8 <MD_FillRect>
	     MD_FillRect(600, 0, 100, 120, COLOR_WHITE);
 8000a5c:	4629      	mov	r1, r5
 8000a5e:	9600      	str	r6, [sp, #0]
 8000a60:	2378      	movs	r3, #120	; 0x78
 8000a62:	2264      	movs	r2, #100	; 0x64
 8000a64:	f44f 7016 	mov.w	r0, #600	; 0x258
 8000a68:	f000 fc26 	bl	80012b8 <MD_FillRect>
	     MD_FillRect(700, 0, 100, 120, COLOR_SILVER);
 8000a6c:	f24c 6318 	movw	r3, #50712	; 0xc618
 8000a70:	4629      	mov	r1, r5
 8000a72:	9300      	str	r3, [sp, #0]
 8000a74:	2264      	movs	r2, #100	; 0x64
 8000a76:	2378      	movs	r3, #120	; 0x78
 8000a78:	f44f 702f 	mov.w	r0, #700	; 0x2bc
 8000a7c:	f000 fc1c 	bl	80012b8 <MD_FillRect>
	     MD_FillRect(0, 120, 100, 120, COLOR_GRAY);
 8000a80:	2378      	movs	r3, #120	; 0x78
 8000a82:	f248 4210 	movw	r2, #33808	; 0x8410
 8000a86:	4619      	mov	r1, r3
 8000a88:	9200      	str	r2, [sp, #0]
 8000a8a:	4628      	mov	r0, r5
 8000a8c:	2264      	movs	r2, #100	; 0x64
 8000a8e:	f000 fc13 	bl	80012b8 <MD_FillRect>
	     MD_FillRect(100, 120, 100, 120, COLOR_MAROON);
 8000a92:	2378      	movs	r3, #120	; 0x78
 8000a94:	2264      	movs	r2, #100	; 0x64
 8000a96:	f44f 4100 	mov.w	r1, #32768	; 0x8000
 8000a9a:	9100      	str	r1, [sp, #0]
 8000a9c:	4610      	mov	r0, r2
 8000a9e:	4619      	mov	r1, r3
 8000aa0:	f000 fc0a 	bl	80012b8 <MD_FillRect>
	     MD_FillRect(200, 120, 100, 120, COLOR_OLIVE);
 8000aa4:	2378      	movs	r3, #120	; 0x78
 8000aa6:	f44f 4204 	mov.w	r2, #33792	; 0x8400
 8000aaa:	4619      	mov	r1, r3
 8000aac:	9200      	str	r2, [sp, #0]
 8000aae:	20c8      	movs	r0, #200	; 0xc8
 8000ab0:	2264      	movs	r2, #100	; 0x64
 8000ab2:	f000 fc01 	bl	80012b8 <MD_FillRect>
	     MD_FillRect(300, 120, 100, 120, COLOR_LIME);
 8000ab6:	2378      	movs	r3, #120	; 0x78
 8000ab8:	4619      	mov	r1, r3
 8000aba:	f8cd 9000 	str.w	r9, [sp]
 8000abe:	2264      	movs	r2, #100	; 0x64
 8000ac0:	f44f 7096 	mov.w	r0, #300	; 0x12c
 8000ac4:	f000 fbf8 	bl	80012b8 <MD_FillRect>
	     MD_FillRect(400, 120, 100, 120, COLOR_AQUA);
 8000ac8:	2378      	movs	r3, #120	; 0x78
 8000aca:	4619      	mov	r1, r3
 8000acc:	f8cd 8000 	str.w	r8, [sp]
 8000ad0:	2264      	movs	r2, #100	; 0x64
 8000ad2:	f44f 70c8 	mov.w	r0, #400	; 0x190
 8000ad6:	f000 fbef 	bl	80012b8 <MD_FillRect>
	     MD_FillRect(500, 120, 100, 120, COLOR_TEAL);
 8000ada:	2378      	movs	r3, #120	; 0x78
 8000adc:	f44f 6282 	mov.w	r2, #1040	; 0x410
 8000ae0:	4619      	mov	r1, r3
 8000ae2:	9200      	str	r2, [sp, #0]
 8000ae4:	f44f 70fa 	mov.w	r0, #500	; 0x1f4
 8000ae8:	2264      	movs	r2, #100	; 0x64
 8000aea:	f000 fbe5 	bl	80012b8 <MD_FillRect>
	     MD_FillRect(600, 120, 100, 120, COLOR_NAVY);
 8000aee:	2378      	movs	r3, #120	; 0x78
 8000af0:	2210      	movs	r2, #16
 8000af2:	4619      	mov	r1, r3
 8000af4:	9200      	str	r2, [sp, #0]
 8000af6:	f44f 7016 	mov.w	r0, #600	; 0x258
 8000afa:	2264      	movs	r2, #100	; 0x64
 8000afc:	f000 fbdc 	bl	80012b8 <MD_FillRect>
	     MD_FillRect(700, 120, 100, 120, COLOR_PURPLE);
 8000b00:	2378      	movs	r3, #120	; 0x78
 8000b02:	f248 0210 	movw	r2, #32784	; 0x8010
 8000b06:	4619      	mov	r1, r3
 8000b08:	9200      	str	r2, [sp, #0]
 8000b0a:	f44f 702f 	mov.w	r0, #700	; 0x2bc
 8000b0e:	2264      	movs	r2, #100	; 0x64
 8000b10:	f000 fbd2 	bl	80012b8 <MD_FillRect>
	     MD_FillRect(0, 240, 100, 120, COLOR_FUCHSIA);
 8000b14:	4628      	mov	r0, r5
 8000b16:	f8cd b000 	str.w	fp, [sp]
 8000b1a:	2378      	movs	r3, #120	; 0x78
 8000b1c:	2264      	movs	r2, #100	; 0x64
 8000b1e:	21f0      	movs	r1, #240	; 0xf0
 8000b20:	f000 fbca 	bl	80012b8 <MD_FillRect>
	     MD_FillRect(100, 240, 100, 120, COLOR_ORANGE);
 8000b24:	2264      	movs	r2, #100	; 0x64
 8000b26:	f64f 5120 	movw	r1, #64800	; 0xfd20
 8000b2a:	4610      	mov	r0, r2
 8000b2c:	2378      	movs	r3, #120	; 0x78
 8000b2e:	9100      	str	r1, [sp, #0]
 8000b30:	21f0      	movs	r1, #240	; 0xf0
 8000b32:	f000 fbc1 	bl	80012b8 <MD_FillRect>
	     HAL_Delay(5000);
 8000b36:	f241 3088 	movw	r0, #5000	; 0x1388
 8000b3a:	f001 fb2b 	bl	8002194 <HAL_Delay>
	             MD_Clear();
 8000b3e:	f000 f975 	bl	8000e2c <MD_Clear>
	             MD_FillRect(50, 50, 200, 150, COLOR_RED);
 8000b42:	2132      	movs	r1, #50	; 0x32
 8000b44:	4608      	mov	r0, r1
 8000b46:	9700      	str	r7, [sp, #0]
 8000b48:	2396      	movs	r3, #150	; 0x96
 8000b4a:	22c8      	movs	r2, #200	; 0xc8
 8000b4c:	f000 fbb4 	bl	80012b8 <MD_FillRect>
	             MD_DrawRect(50, 50, 200, 150, COLOR_WHITE);
 8000b50:	2132      	movs	r1, #50	; 0x32
 8000b52:	4608      	mov	r0, r1
 8000b54:	9600      	str	r6, [sp, #0]
 8000b56:	22c8      	movs	r2, #200	; 0xc8
 8000b58:	2396      	movs	r3, #150	; 0x96
 8000b5a:	f000 faa1 	bl	80010a0 <MD_DrawRect>
	             MD_FillCircle(500, 240, 100, COLOR_GREEN);
 8000b5e:	464b      	mov	r3, r9
 8000b60:	2264      	movs	r2, #100	; 0x64
 8000b62:	21f0      	movs	r1, #240	; 0xf0
 8000b64:	f44f 70fa 	mov.w	r0, #500	; 0x1f4
 8000b68:	f000 fd5c 	bl	8001624 <MD_FillCircle>
	             MD_DrawCircle(500, 240, 100, COLOR_WHITE);
 8000b6c:	4633      	mov	r3, r6
 8000b6e:	2264      	movs	r2, #100	; 0x64
 8000b70:	21f0      	movs	r1, #240	; 0xf0
 8000b72:	f44f 70fa 	mov.w	r0, #500	; 0x1f4
 8000b76:	f000 fc15 	bl	80013a4 <MD_DrawCircle>
	             MD_FillTriangle(650, 50, 750, 200, 600, 200, COLOR_BLUE);
 8000b7a:	f04f 09c8 	mov.w	r9, #200	; 0xc8
 8000b7e:	f44f 7216 	mov.w	r2, #600	; 0x258
 8000b82:	464b      	mov	r3, r9
 8000b84:	9200      	str	r2, [sp, #0]
 8000b86:	e9cd 9a01 	strd	r9, sl, [sp, #4]
 8000b8a:	f240 22ee 	movw	r2, #750	; 0x2ee
 8000b8e:	2132      	movs	r1, #50	; 0x32
 8000b90:	f240 208a 	movw	r0, #650	; 0x28a
 8000b94:	f000 fed0 	bl	8001938 <MD_FillTriangle>
	             MD_FillRoundRect(100, 300, 200, 100, 20, COLOR_YELLOW);
 8000b98:	f04f 0c14 	mov.w	ip, #20
 8000b9c:	2364      	movs	r3, #100	; 0x64
 8000b9e:	f64f 71e0 	movw	r1, #65504	; 0xffe0
 8000ba2:	e9cd c100 	strd	ip, r1, [sp]
 8000ba6:	464a      	mov	r2, r9
 8000ba8:	4618      	mov	r0, r3
 8000baa:	f44f 7196 	mov.w	r1, #300	; 0x12c
 8000bae:	f001 f82d 	bl	8001c0c <MD_FillRoundRect>
	             MD_DrawLine(0, 0, 799, 479, COLOR_WHITE);
 8000bb2:	4629      	mov	r1, r5
 8000bb4:	f240 321f 	movw	r2, #799	; 0x31f
 8000bb8:	f240 13df 	movw	r3, #479	; 0x1df
 8000bbc:	4628      	mov	r0, r5
 8000bbe:	9600      	str	r6, [sp, #0]
 8000bc0:	f000 f960 	bl	8000e84 <MD_DrawLine>
	             HAL_Delay(3000);
 8000bc4:	f640 30b8 	movw	r0, #3000	; 0xbb8
 8000bc8:	f001 fae4 	bl	8002194 <HAL_Delay>
	                     MD_SetDisplayPage(0);
 8000bcc:	4628      	mov	r0, r5
 8000bce:	f000 f893 	bl	8000cf8 <MD_SetDisplayPage>
	                     MD_SetWritePage(1);
 8000bd2:	2001      	movs	r0, #1
 8000bd4:	f000 f8a8 	bl	8000d28 <MD_SetWritePage>
	                     MD_FillScreen(COLOR_CYAN);
 8000bd8:	4640      	mov	r0, r8
 8000bda:	f000 f8f9 	bl	8000dd0 <MD_FillScreen>
	                     MD_FillCircle(400, 240, 150, COLOR_RED);
 8000bde:	463b      	mov	r3, r7
 8000be0:	2296      	movs	r2, #150	; 0x96
 8000be2:	21f0      	movs	r1, #240	; 0xf0
 8000be4:	f44f 70c8 	mov.w	r0, #400	; 0x190
 8000be8:	f000 fd1c 	bl	8001624 <MD_FillCircle>
	                     MD_SwapPages();  /* Мгновенное переключение */
 8000bec:	f000 f8b4 	bl	8000d58 <MD_SwapPages>
	                     HAL_Delay(1000);
 8000bf0:	f44f 707a 	mov.w	r0, #1000	; 0x3e8
 8000bf4:	f001 face 	bl	8002194 <HAL_Delay>
	                     MD_SetDisplayPage(0);
 8000bf8:	4628      	mov	r0, r5
 8000bfa:	f000 f87d 	bl	8000cf8 <MD_SetDisplayPage>
	                     MD_SetWritePage(0);
 8000bfe:	4628      	mov	r0, r5
 8000c00:	f000 f892 	bl	8000d28 <MD_SetWritePage>
	                             MD_Sleep(1);
 8000c04:	2001      	movs	r0, #1
 8000c06:	f000 f8d1 	bl	8000dac <MD_Sleep>
	                             HAL_Delay(2000);
 8000c0a:	f44f 60fa 	mov.w	r0, #2000	; 0x7d0
 8000c0e:	f001 fac1 	bl	8002194 <HAL_Delay>
	                             MD_WakeUp();
 8000c12:	f000 f8d7 	bl	8000dc4 <MD_WakeUp>
	                             HAL_Delay(1000);
 8000c16:	f44f 707a 	mov.w	r0, #1000	; 0x3e8
 8000c1a:	f001 fabb 	bl	8002194 <HAL_Delay>
	     LED_BlinkNumber(D2_GPIO_Port, D2_Pin, 1);
 8000c1e:	e567      	b.n	80006f0 <main+0x178>
  sDate.WeekDay = RTC_WEEKDAY_MONDAY;
 8000c20:	4b09      	ldr	r3, [pc, #36]	; (8000c48 <main+0x6d0>)
 8000c22:	9304      	str	r3, [sp, #16]
  if (HAL_RTC_SetDate(&hrtc, &sDate, RTC_FORMAT_BCD) != HAL_OK)
 8000c24:	462a      	mov	r2, r5
 8000c26:	a904      	add	r1, sp, #16
 8000c28:	4620      	mov	r0, r4
 8000c2a:	f002 fabd 	bl	80031a8 <HAL_RTC_SetDate>
 8000c2e:	b108      	cbz	r0, 8000c34 <main+0x6bc>
 8000c30:	b672      	cpsid	i
  while (1)
 8000c32:	e7fe      	b.n	8000c32 <main+0x6ba>
  if (HAL_RTCEx_SetCalibrationOutPut(&hrtc, RTC_CALIBOUTPUT_1HZ) != HAL_OK)
 8000c34:	f44f 2100 	mov.w	r1, #524288	; 0x80000
 8000c38:	4620      	mov	r0, r4
 8000c3a:	f002 fd2f 	bl	800369c <HAL_RTCEx_SetCalibrationOutPut>
 8000c3e:	2800      	cmp	r0, #0
 8000c40:	f43f ad39 	beq.w	80006b6 <main+0x13e>
 8000c44:	b672      	cpsid	i
  while (1)
 8000c46:	e7fe      	b.n	8000c46 <main+0x6ce>
 8000c48:	00010101 	.word	0x00010101

08000c4c <Error_Handler>:
 8000c4c:	b672      	cpsid	i
 8000c4e:	e7fe      	b.n	8000c4e <Error_Handler+0x2>

08000c50 <MD_Init>:
 * 1. Сброс
 * 2. Очистка экрана (подсветка выключена)
 * 3. Включение подсветки
 * ================================================================ */
void MD_Init(void)
{
 8000c50:	b510      	push	{r4, lr}
    HAL_Delay(5);  /* Ждём завершения внутренней инициализации */
 8000c52:	2005      	movs	r0, #5
 8000c54:	f001 fa9e 	bl	8002194 <HAL_Delay>
 * Управление страницами
 * ================================================================ */
void MD_SetDisplayPage(uint8_t page)
{
    if (page >= LCD_PAGES) page = 0;
    currentDisplayPage = page;
 8000c58:	491e      	ldr	r1, [pc, #120]	; (8000cd4 <MD_Init+0x84>)
    LCD_DATA = data;
 8000c5a:	4a1f      	ldr	r2, [pc, #124]	; (8000cd8 <MD_Init+0x88>)
}

void MD_SetWritePage(uint8_t page)
{
    if (page >= LCD_PAGES) page = 0;
    currentWritePage = page;
 8000c5c:	4c1f      	ldr	r4, [pc, #124]	; (8000cdc <MD_Init+0x8c>)
    LCD_CMD = cmd;
 8000c5e:	f04f 40c0 	mov.w	r0, #1610612736	; 0x60000000
    currentDisplayPage = page;
 8000c62:	2300      	movs	r3, #0
 8000c64:	700b      	strb	r3, [r1, #0]
    LCD_CMD = cmd;
 8000c66:	2104      	movs	r1, #4
 8000c68:	8001      	strh	r1, [r0, #0]
 8000c6a:	2105      	movs	r1, #5
    LCD_DATA = data;
 8000c6c:	8013      	strh	r3, [r2, #0]
    currentWritePage = page;
 8000c6e:	7023      	strb	r3, [r4, #0]
    LCD_CMD = cmd;
 8000c70:	8001      	strh	r1, [r0, #0]
 8000c72:	210c      	movs	r1, #12
    LCD_DATA = data;
 8000c74:	8013      	strh	r3, [r2, #0]
    LCD_CMD = cmd;
 8000c76:	8001      	strh	r1, [r0, #0]
 8000c78:	210d      	movs	r1, #13
    LCD_DATA = data;
 8000c7a:	8013      	strh	r3, [r2, #0]
    LCD_CMD = cmd;
 8000c7c:	f04f 0c0f 	mov.w	ip, #15
    LCD_CMD = cmd;
 8000c80:	8001      	strh	r1, [r0, #0]
 8000c82:	2102      	movs	r1, #2
    LCD_DATA = data;
 8000c84:	8013      	strh	r3, [r2, #0]
    LCD_CMD = cmd;
 8000c86:	f8a0 c000 	strh.w	ip, [r0]
    LCD_CMD = cmd;
 8000c8a:	8001      	strh	r1, [r0, #0]
 8000c8c:	2103      	movs	r1, #3
    LCD_DATA = data;
 8000c8e:	8013      	strh	r3, [r2, #0]
    LCD_CMD = cmd;
 8000c90:	8001      	strh	r1, [r0, #0]
 8000c92:	2106      	movs	r1, #6
    LCD_DATA = data;
 8000c94:	8013      	strh	r3, [r2, #0]
    LCD_CMD = cmd;
 8000c96:	8001      	strh	r1, [r0, #0]
    LCD_DATA = data;
 8000c98:	f240 11df 	movw	r1, #479	; 0x1df
 8000c9c:	8011      	strh	r1, [r2, #0]
    LCD_CMD = cmd;
 8000c9e:	2107      	movs	r1, #7
 8000ca0:	8001      	strh	r1, [r0, #0]
    LCD_DATA = data;
 8000ca2:	f240 311f 	movw	r1, #799	; 0x31f
 8000ca6:	8011      	strh	r1, [r2, #0]
    LCD_CMD = cmd;
 8000ca8:	f64b 3180 	movw	r1, #48000	; 0xbb80
 8000cac:	f8a0 c000 	strh.w	ip, [r0]

    uint32_t total = (uint32_t)LCD_WIDTH * LCD_HEIGHT;
    uint32_t blocks = total / 8;
    uint32_t remainder = total % 8;

    while (blocks--)
 8000cb0:	3901      	subs	r1, #1
    {
        LCD_DATA = color; LCD_DATA = color; LCD_DATA = color; LCD_DATA = color;
 8000cb2:	8013      	strh	r3, [r2, #0]
 8000cb4:	8013      	strh	r3, [r2, #0]
 8000cb6:	8013      	strh	r3, [r2, #0]
 8000cb8:	8013      	strh	r3, [r2, #0]
        LCD_DATA = color; LCD_DATA = color; LCD_DATA = color; LCD_DATA = color;
 8000cba:	8013      	strh	r3, [r2, #0]
 8000cbc:	8013      	strh	r3, [r2, #0]
 8000cbe:	8013      	strh	r3, [r2, #0]
 8000cc0:	8013      	strh	r3, [r2, #0]
    while (blocks--)
 8000cc2:	d1f5      	bne.n	8000cb0 <MD_Init+0x60>
    LCD_CMD = cmd;
 8000cc4:	f04f 41c0 	mov.w	r1, #1610612736	; 0x60000000
 8000cc8:	2001      	movs	r0, #1
    LCD_DATA = data;
 8000cca:	2310      	movs	r3, #16
    LCD_CMD = cmd;
 8000ccc:	8008      	strh	r0, [r1, #0]
    LCD_DATA = data;
 8000cce:	8013      	strh	r3, [r2, #0]
}
 8000cd0:	bd10      	pop	{r4, pc}
 8000cd2:	bf00      	nop
 8000cd4:	20000098 	.word	0x20000098
 8000cd8:	60080000 	.word	0x60080000
 8000cdc:	20000099 	.word	0x20000099

08000ce0 <MD_SetBacklight>:
    if (brightness > BACKLIGHT_MAX) return;  /* Игнорируем значения > 16 */
 8000ce0:	2810      	cmp	r0, #16
 8000ce2:	d805      	bhi.n	8000cf0 <MD_SetBacklight+0x10>
    LCD_DATA = data;
 8000ce4:	4b03      	ldr	r3, [pc, #12]	; (8000cf4 <MD_SetBacklight+0x14>)
    LCD_CMD = cmd;
 8000ce6:	f04f 42c0 	mov.w	r2, #1610612736	; 0x60000000
 8000cea:	2101      	movs	r1, #1
 8000cec:	8011      	strh	r1, [r2, #0]
    LCD_DATA = data;
 8000cee:	8018      	strh	r0, [r3, #0]
}
 8000cf0:	4770      	bx	lr
 8000cf2:	bf00      	nop
 8000cf4:	60080000 	.word	0x60080000

08000cf8 <MD_SetDisplayPage>:
    if (page >= LCD_PAGES) page = 0;
 8000cf8:	2807      	cmp	r0, #7
{
 8000cfa:	b410      	push	{r4}
 8000cfc:	bf88      	it	hi
 8000cfe:	2300      	movhi	r3, #0
    currentDisplayPage = page;
 8000d00:	4c07      	ldr	r4, [pc, #28]	; (8000d20 <MD_SetDisplayPage+0x28>)
    LCD_DATA = data;
 8000d02:	4a08      	ldr	r2, [pc, #32]	; (8000d24 <MD_SetDisplayPage+0x2c>)
    if (page >= LCD_PAGES) page = 0;
 8000d04:	bf88      	it	hi
 8000d06:	4618      	movhi	r0, r3
    LCD_CMD = cmd;
 8000d08:	f04f 41c0 	mov.w	r1, #1610612736	; 0x60000000
    currentDisplayPage = page;
 8000d0c:	7020      	strb	r0, [r4, #0]
    MD_WriteCmdData(REG_DISPLAY_PAGE, page);
 8000d0e:	bf98      	it	ls
 8000d10:	b283      	uxthls	r3, r0
    LCD_CMD = cmd;
 8000d12:	2004      	movs	r0, #4
 8000d14:	8008      	strh	r0, [r1, #0]
}
 8000d16:	f85d 4b04 	ldr.w	r4, [sp], #4
    LCD_DATA = data;
 8000d1a:	8013      	strh	r3, [r2, #0]
}
 8000d1c:	4770      	bx	lr
 8000d1e:	bf00      	nop
 8000d20:	20000098 	.word	0x20000098
 8000d24:	60080000 	.word	0x60080000

08000d28 <MD_SetWritePage>:
    if (page >= LCD_PAGES) page = 0;
 8000d28:	2807      	cmp	r0, #7
{
 8000d2a:	b410      	push	{r4}
 8000d2c:	bf88      	it	hi
 8000d2e:	2300      	movhi	r3, #0
    currentWritePage = page;
 8000d30:	4c07      	ldr	r4, [pc, #28]	; (8000d50 <MD_SetWritePage+0x28>)
    LCD_DATA = data;
 8000d32:	4a08      	ldr	r2, [pc, #32]	; (8000d54 <MD_SetWritePage+0x2c>)
    if (page >= LCD_PAGES) page = 0;
 8000d34:	bf88      	it	hi
 8000d36:	4618      	movhi	r0, r3
    LCD_CMD = cmd;
 8000d38:	f04f 41c0 	mov.w	r1, #1610612736	; 0x60000000
    currentWritePage = page;
 8000d3c:	7020      	strb	r0, [r4, #0]
    MD_WriteCmdData(REG_WRITE_PAGE, page);
 8000d3e:	bf98      	it	ls
 8000d40:	b283      	uxthls	r3, r0
    LCD_CMD = cmd;
 8000d42:	2005      	movs	r0, #5
 8000d44:	8008      	strh	r0, [r1, #0]
}
 8000d46:	f85d 4b04 	ldr.w	r4, [sp], #4
    LCD_DATA = data;
 8000d4a:	8013      	strh	r3, [r2, #0]
}
 8000d4c:	4770      	bx	lr
 8000d4e:	bf00      	nop
 8000d50:	20000099 	.word	0x20000099
 8000d54:	60080000 	.word	0x60080000

08000d58 <MD_SwapPages>:
    MD_SetDisplayPage(currentWritePage);
 8000d58:	4911      	ldr	r1, [pc, #68]	; (8000da0 <MD_SwapPages+0x48>)
    uint8_t temp = currentDisplayPage;
 8000d5a:	4812      	ldr	r0, [pc, #72]	; (8000da4 <MD_SwapPages+0x4c>)
    MD_SetDisplayPage(currentWritePage);
 8000d5c:	780a      	ldrb	r2, [r1, #0]
    uint8_t temp = currentDisplayPage;
 8000d5e:	7803      	ldrb	r3, [r0, #0]
    if (page >= LCD_PAGES) page = 0;
 8000d60:	2a07      	cmp	r2, #7
 8000d62:	bf84      	itt	hi
 8000d64:	f04f 0c00 	movhi.w	ip, #0
 8000d68:	4662      	movhi	r2, ip
    currentDisplayPage = page;
 8000d6a:	7002      	strb	r2, [r0, #0]
    MD_WriteCmdData(REG_DISPLAY_PAGE, page);
 8000d6c:	bf98      	it	ls
 8000d6e:	fa1f fc82 	uxthls.w	ip, r2
    LCD_CMD = cmd;
 8000d72:	f04f 42c0 	mov.w	r2, #1610612736	; 0x60000000
 8000d76:	2004      	movs	r0, #4
 8000d78:	8010      	strh	r0, [r2, #0]
    LCD_DATA = data;
 8000d7a:	f502 2200 	add.w	r2, r2, #524288	; 0x80000
    if (page >= LCD_PAGES) page = 0;
 8000d7e:	2b07      	cmp	r3, #7
    LCD_DATA = data;
 8000d80:	f8a2 c000 	strh.w	ip, [r2]
    if (page >= LCD_PAGES) page = 0;
 8000d84:	bf88      	it	hi
 8000d86:	2300      	movhi	r3, #0
    LCD_DATA = data;
 8000d88:	4a07      	ldr	r2, [pc, #28]	; (8000da8 <MD_SwapPages+0x50>)
    currentWritePage = page;
 8000d8a:	700b      	strb	r3, [r1, #0]
    LCD_CMD = cmd;
 8000d8c:	f04f 4cc0 	mov.w	ip, #1610612736	; 0x60000000
    MD_WriteCmdData(REG_WRITE_PAGE, page);
 8000d90:	bf94      	ite	ls
 8000d92:	b298      	uxthls	r0, r3
    if (page >= LCD_PAGES) page = 0;
 8000d94:	4618      	movhi	r0, r3
    LCD_CMD = cmd;
 8000d96:	2305      	movs	r3, #5
 8000d98:	f8ac 3000 	strh.w	r3, [ip]
    LCD_DATA = data;
 8000d9c:	8010      	strh	r0, [r2, #0]
}
 8000d9e:	4770      	bx	lr
 8000da0:	20000099 	.word	0x20000099
 8000da4:	20000098 	.word	0x20000098
 8000da8:	60080000 	.word	0x60080000

08000dac <MD_Sleep>:
    MD_WriteCmdData(REG_SLEEP, enable ? 0x0001 : 0x0000);
 8000dac:	3800      	subs	r0, #0
    LCD_DATA = data;
 8000dae:	4b04      	ldr	r3, [pc, #16]	; (8000dc0 <MD_Sleep+0x14>)
    LCD_CMD = cmd;
 8000db0:	f04f 42c0 	mov.w	r2, #1610612736	; 0x60000000
    MD_WriteCmdData(REG_SLEEP, enable ? 0x0001 : 0x0000);
 8000db4:	bf18      	it	ne
 8000db6:	2001      	movne	r0, #1
    LCD_CMD = cmd;
 8000db8:	210b      	movs	r1, #11
 8000dba:	8011      	strh	r1, [r2, #0]
    LCD_DATA = data;
 8000dbc:	8018      	strh	r0, [r3, #0]
}
 8000dbe:	4770      	bx	lr
 8000dc0:	60080000 	.word	0x60080000

08000dc4 <MD_WakeUp>:
    LCD_CMD = cmd;
 8000dc4:	f04f 43c0 	mov.w	r3, #1610612736	; 0x60000000
 8000dc8:	220f      	movs	r2, #15
 8000dca:	801a      	strh	r2, [r3, #0]
}
 8000dcc:	4770      	bx	lr
 8000dce:	bf00      	nop

08000dd0 <MD_FillScreen>:
    LCD_CMD = cmd;
 8000dd0:	f04f 42c0 	mov.w	r2, #1610612736	; 0x60000000
    LCD_DATA = data;
 8000dd4:	4b14      	ldr	r3, [pc, #80]	; (8000e28 <MD_FillScreen+0x58>)
    LCD_CMD = cmd;
 8000dd6:	f04f 0c02 	mov.w	ip, #2
 8000dda:	f8a2 c000 	strh.w	ip, [r2]
    LCD_DATA = data;
 8000dde:	2100      	movs	r1, #0
    LCD_CMD = cmd;
 8000de0:	f04f 0c03 	mov.w	ip, #3
    LCD_DATA = data;
 8000de4:	8019      	strh	r1, [r3, #0]
    LCD_CMD = cmd;
 8000de6:	f8a2 c000 	strh.w	ip, [r2]
 8000dea:	f04f 0c06 	mov.w	ip, #6
    LCD_DATA = data;
 8000dee:	8019      	strh	r1, [r3, #0]
    LCD_CMD = cmd;
 8000df0:	f8a2 c000 	strh.w	ip, [r2]
 8000df4:	2107      	movs	r1, #7
    LCD_DATA = data;
 8000df6:	f240 1cdf 	movw	ip, #479	; 0x1df
 8000dfa:	f8a3 c000 	strh.w	ip, [r3]
    LCD_CMD = cmd;
 8000dfe:	8011      	strh	r1, [r2, #0]
    LCD_DATA = data;
 8000e00:	f240 3c1f 	movw	ip, #799	; 0x31f
    LCD_CMD = cmd;
 8000e04:	210f      	movs	r1, #15
    LCD_DATA = data;
 8000e06:	f8a3 c000 	strh.w	ip, [r3]
    LCD_CMD = cmd;
 8000e0a:	8011      	strh	r1, [r2, #0]
 8000e0c:	f64b 3280 	movw	r2, #48000	; 0xbb80
    while (blocks--)
 8000e10:	3a01      	subs	r2, #1
        LCD_DATA = color; LCD_DATA = color; LCD_DATA = color; LCD_DATA = color;
 8000e12:	8018      	strh	r0, [r3, #0]
 8000e14:	8018      	strh	r0, [r3, #0]
 8000e16:	8018      	strh	r0, [r3, #0]
 8000e18:	8018      	strh	r0, [r3, #0]
        LCD_DATA = color; LCD_DATA = color; LCD_DATA = color; LCD_DATA = color;
 8000e1a:	8018      	strh	r0, [r3, #0]
 8000e1c:	8018      	strh	r0, [r3, #0]
 8000e1e:	8018      	strh	r0, [r3, #0]
 8000e20:	8018      	strh	r0, [r3, #0]
    while (blocks--)
 8000e22:	d1f5      	bne.n	8000e10 <MD_FillScreen+0x40>

    while (remainder--)
    {
        LCD_DATA = color;
    }
}
 8000e24:	4770      	bx	lr
 8000e26:	bf00      	nop
 8000e28:	60080000 	.word	0x60080000

08000e2c <MD_Clear>:
    LCD_CMD = cmd;
 8000e2c:	f04f 41c0 	mov.w	r1, #1610612736	; 0x60000000
    LCD_DATA = data;
 8000e30:	4b13      	ldr	r3, [pc, #76]	; (8000e80 <MD_Clear+0x54>)
 8000e32:	2200      	movs	r2, #0
    LCD_CMD = cmd;
 8000e34:	f04f 0c02 	mov.w	ip, #2
 8000e38:	2003      	movs	r0, #3
 8000e3a:	f8a1 c000 	strh.w	ip, [r1]
    LCD_DATA = data;
 8000e3e:	801a      	strh	r2, [r3, #0]
    LCD_CMD = cmd;
 8000e40:	f04f 0c06 	mov.w	ip, #6
 8000e44:	8008      	strh	r0, [r1, #0]
    LCD_DATA = data;
 8000e46:	f240 10df 	movw	r0, #479	; 0x1df
 8000e4a:	801a      	strh	r2, [r3, #0]
    LCD_CMD = cmd;
 8000e4c:	f8a1 c000 	strh.w	ip, [r1]
    LCD_DATA = data;
 8000e50:	8018      	strh	r0, [r3, #0]
    LCD_CMD = cmd;
 8000e52:	f04f 0c07 	mov.w	ip, #7
    LCD_DATA = data;
 8000e56:	f240 301f 	movw	r0, #799	; 0x31f
    LCD_CMD = cmd;
 8000e5a:	f8a1 c000 	strh.w	ip, [r1]
    LCD_DATA = data;
 8000e5e:	8018      	strh	r0, [r3, #0]
    LCD_CMD = cmd;
 8000e60:	200f      	movs	r0, #15
 8000e62:	8008      	strh	r0, [r1, #0]
 8000e64:	f64b 3180 	movw	r1, #48000	; 0xbb80
    while (blocks--)
 8000e68:	3901      	subs	r1, #1
        LCD_DATA = color; LCD_DATA = color; LCD_DATA = color; LCD_DATA = color;
 8000e6a:	801a      	strh	r2, [r3, #0]
 8000e6c:	801a      	strh	r2, [r3, #0]
 8000e6e:	801a      	strh	r2, [r3, #0]
 8000e70:	801a      	strh	r2, [r3, #0]
        LCD_DATA = color; LCD_DATA = color; LCD_DATA = color; LCD_DATA = color;
 8000e72:	801a      	strh	r2, [r3, #0]
 8000e74:	801a      	strh	r2, [r3, #0]
 8000e76:	801a      	strh	r2, [r3, #0]
 8000e78:	801a      	strh	r2, [r3, #0]
    while (blocks--)
 8000e7a:	d1f5      	bne.n	8000e68 <MD_Clear+0x3c>

void MD_Clear(void)
{
    MD_FillScreen(COLOR_BLACK);
}
 8000e7c:	4770      	bx	lr
 8000e7e:	bf00      	nop
 8000e80:	60080000 	.word	0x60080000

08000e84 <MD_DrawLine>:

/* ================================================================
 * Линия (алгоритм Брезенхэма)
 * ================================================================ */
void MD_DrawLine(int16_t x0, int16_t y0, int16_t x1, int16_t y1, uint16_t color)
{
 8000e84:	e92d 4ff0 	stmdb	sp!, {r4, r5, r6, r7, r8, r9, sl, fp, lr}
 8000e88:	b089      	sub	sp, #36	; 0x24
    /* Оптимизация для горизонтальных и вертикальных линий */
    if (y0 == y1)
 8000e8a:	4299      	cmp	r1, r3
{
 8000e8c:	f8bd 4048 	ldrh.w	r4, [sp, #72]	; 0x48
 8000e90:	9307      	str	r3, [sp, #28]
 8000e92:	9406      	str	r4, [sp, #24]
    if (y0 == y1)
 8000e94:	f000 8085 	beq.w	8000fa2 <MD_DrawLine+0x11e>
    {
        if (x0 > x1) { int16_t t = x0; x0 = x1; x1 = t; }
        MD_DrawHLine(x0, y0, x1 - x0 + 1, color);
        return;
    }
    if (x0 == x1)
 8000e98:	4290      	cmp	r0, r2
 8000e9a:	f000 80c1 	beq.w	8001020 <MD_DrawLine+0x19c>
        if (y0 > y1) { int16_t t = y0; y0 = y1; y1 = t; }
        MD_DrawVLine(x0, y0, y1 - y0 + 1, color);
        return;
    }

    int16_t dx = (x1 > x0) ? (x1 - x0) : (x0 - x1);
 8000e9e:	da0f      	bge.n	8000ec0 <MD_DrawLine+0x3c>
 8000ea0:	1a13      	subs	r3, r2, r0
 8000ea2:	fa1f fb83 	uxth.w	fp, r3
 8000ea6:	b21b      	sxth	r3, r3
 8000ea8:	9302      	str	r3, [sp, #8]
    int16_t dy = (y1 > y0) ? (y1 - y0) : (y0 - y1);
 8000eaa:	9b07      	ldr	r3, [sp, #28]
 8000eac:	4299      	cmp	r1, r3
 8000eae:	da10      	bge.n	8000ed2 <MD_DrawLine+0x4e>
 8000eb0:	1a5b      	subs	r3, r3, r1
    int16_t sx = (x0 < x1) ? 1 : -1;
 8000eb2:	2401      	movs	r4, #1
    int16_t dy = (y1 > y0) ? (y1 - y0) : (y0 - y1);
 8000eb4:	b29d      	uxth	r5, r3
    int16_t sx = (x0 < x1) ? 1 : -1;
 8000eb6:	9403      	str	r4, [sp, #12]
    int16_t dy = (y1 > y0) ? (y1 - y0) : (y0 - y1);
 8000eb8:	9505      	str	r5, [sp, #20]
 8000eba:	b21b      	sxth	r3, r3
    int16_t sy = (y0 < y1) ? 1 : -1;
 8000ebc:	46a2      	mov	sl, r4
 8000ebe:	e014      	b.n	8000eea <MD_DrawLine+0x66>
    int16_t dx = (x1 > x0) ? (x1 - x0) : (x0 - x1);
 8000ec0:	1a83      	subs	r3, r0, r2
 8000ec2:	fa1f fb83 	uxth.w	fp, r3
 8000ec6:	b21b      	sxth	r3, r3
 8000ec8:	9302      	str	r3, [sp, #8]
    int16_t dy = (y1 > y0) ? (y1 - y0) : (y0 - y1);
 8000eca:	9b07      	ldr	r3, [sp, #28]
 8000ecc:	4299      	cmp	r1, r3
 8000ece:	f2c0 809d 	blt.w	800100c <MD_DrawLine+0x188>
 8000ed2:	9b07      	ldr	r3, [sp, #28]
 8000ed4:	1acb      	subs	r3, r1, r3
 8000ed6:	b29c      	uxth	r4, r3
    int16_t sx = (x0 < x1) ? 1 : -1;
 8000ed8:	4290      	cmp	r0, r2
    int16_t dy = (y1 > y0) ? (y1 - y0) : (y0 - y1);
 8000eda:	9405      	str	r4, [sp, #20]
 8000edc:	b21b      	sxth	r3, r3
    int16_t sx = (x0 < x1) ? 1 : -1;
 8000ede:	f2c0 8090 	blt.w	8001002 <MD_DrawLine+0x17e>
 8000ee2:	f04f 34ff 	mov.w	r4, #4294967295
 8000ee6:	9403      	str	r4, [sp, #12]
    int16_t sy = (y0 < y1) ? 1 : -1;
 8000ee8:	46a2      	mov	sl, r4
        MD_DrawPixel(x0, y0, color);

        if (x0 == x1 && y0 == y1) break;

        int16_t e2 = 2 * err;
        if (e2 > -dy) { err -= dy; x0 += sx; }
 8000eea:	425b      	negs	r3, r3
 8000eec:	9301      	str	r3, [sp, #4]
    int16_t err = dx - dy;
 8000eee:	9b05      	ldr	r3, [sp, #20]
    LCD_DATA = data;
 8000ef0:	4f6a      	ldr	r7, [pc, #424]	; (800109c <MD_DrawLine+0x218>)
    LCD_CMD = cmd;
 8000ef2:	9104      	str	r1, [sp, #16]
    int16_t err = dx - dy;
 8000ef4:	ebab 0e03 	sub.w	lr, fp, r3
 8000ef8:	fa0f fe8e 	sxth.w	lr, lr
 8000efc:	b284      	uxth	r4, r0
 8000efe:	b28d      	uxth	r5, r1
    LCD_CMD = cmd;
 8000f00:	f04f 46c0 	mov.w	r6, #1610612736	; 0x60000000
    if (x >= LCD_WIDTH || y >= LCD_HEIGHT) return;
 8000f04:	f5b4 7f48 	cmp.w	r4, #800	; 0x320
 8000f08:	d217      	bcs.n	8000f3a <MD_DrawLine+0xb6>
 8000f0a:	f5b5 7ff0 	cmp.w	r5, #480	; 0x1e0
 8000f0e:	d214      	bcs.n	8000f3a <MD_DrawLine+0xb6>
    LCD_CMD = cmd;
 8000f10:	f04f 0302 	mov.w	r3, #2
 8000f14:	8033      	strh	r3, [r6, #0]
 8000f16:	f04f 0303 	mov.w	r3, #3
    LCD_DATA = data;
 8000f1a:	803d      	strh	r5, [r7, #0]
    LCD_CMD = cmd;
 8000f1c:	8033      	strh	r3, [r6, #0]
 8000f1e:	f04f 0306 	mov.w	r3, #6
    LCD_DATA = data;
 8000f22:	803c      	strh	r4, [r7, #0]
    LCD_CMD = cmd;
 8000f24:	8033      	strh	r3, [r6, #0]
 8000f26:	f04f 0307 	mov.w	r3, #7
    LCD_DATA = data;
 8000f2a:	803d      	strh	r5, [r7, #0]
    LCD_CMD = cmd;
 8000f2c:	8033      	strh	r3, [r6, #0]
    LCD_CMD = cmd;
 8000f2e:	f04f 030f 	mov.w	r3, #15
    LCD_DATA = data;
 8000f32:	803c      	strh	r4, [r7, #0]
    LCD_CMD = cmd;
 8000f34:	8033      	strh	r3, [r6, #0]
    LCD_DATA = color;
 8000f36:	9b06      	ldr	r3, [sp, #24]
 8000f38:	803b      	strh	r3, [r7, #0]
        if (x0 == x1 && y0 == y1) break;
 8000f3a:	4290      	cmp	r0, r2
        if (e2 < dx)  { err += dx; y0 += sy; }
 8000f3c:	eb05 080a 	add.w	r8, r5, sl
        if (x0 == x1 && y0 == y1) break;
 8000f40:	d028      	beq.n	8000f94 <MD_DrawLine+0x110>
        if (e2 > -dy) { err -= dy; x0 += sx; }
 8000f42:	9b03      	ldr	r3, [sp, #12]
 8000f44:	9901      	ldr	r1, [sp, #4]
 8000f46:	eb04 0903 	add.w	r9, r4, r3
        int16_t e2 = 2 * err;
 8000f4a:	fa1f f38e 	uxth.w	r3, lr
 8000f4e:	ea4f 0c43 	mov.w	ip, r3, lsl #1
 8000f52:	fa0f fc8c 	sxth.w	ip, ip
        if (e2 > -dy) { err -= dy; x0 += sx; }
 8000f56:	458c      	cmp	ip, r1
 8000f58:	dd0a      	ble.n	8000f70 <MD_DrawLine+0xec>
 8000f5a:	9905      	ldr	r1, [sp, #20]
 8000f5c:	eba3 0e01 	sub.w	lr, r3, r1
 8000f60:	fa1f f38e 	uxth.w	r3, lr
 8000f64:	fa0f f089 	sxth.w	r0, r9
 8000f68:	fa0f fe8e 	sxth.w	lr, lr
 8000f6c:	fa1f f489 	uxth.w	r4, r9
        if (e2 < dx)  { err += dx; y0 += sy; }
 8000f70:	9902      	ldr	r1, [sp, #8]
 8000f72:	458c      	cmp	ip, r1
 8000f74:	445b      	add	r3, fp
 8000f76:	dac5      	bge.n	8000f04 <MD_DrawLine+0x80>
 8000f78:	fa0f fe83 	sxth.w	lr, r3
    if (x >= LCD_WIDTH || y >= LCD_HEIGHT) return;
 8000f7c:	f5b4 7f48 	cmp.w	r4, #800	; 0x320
        if (e2 < dx)  { err += dx; y0 += sy; }
 8000f80:	fa0f f388 	sxth.w	r3, r8
 8000f84:	9304      	str	r3, [sp, #16]
 8000f86:	fa1f f588 	uxth.w	r5, r8
    if (x >= LCD_WIDTH || y >= LCD_HEIGHT) return;
 8000f8a:	d3be      	bcc.n	8000f0a <MD_DrawLine+0x86>
        if (x0 == x1 && y0 == y1) break;
 8000f8c:	4290      	cmp	r0, r2
        if (e2 < dx)  { err += dx; y0 += sy; }
 8000f8e:	eb05 080a 	add.w	r8, r5, sl
        if (x0 == x1 && y0 == y1) break;
 8000f92:	d1d6      	bne.n	8000f42 <MD_DrawLine+0xbe>
 8000f94:	9b07      	ldr	r3, [sp, #28]
 8000f96:	9904      	ldr	r1, [sp, #16]
 8000f98:	4299      	cmp	r1, r3
 8000f9a:	d1d2      	bne.n	8000f42 <MD_DrawLine+0xbe>
    }
}
 8000f9c:	b009      	add	sp, #36	; 0x24
 8000f9e:	e8bd 8ff0 	ldmia.w	sp!, {r4, r5, r6, r7, r8, r9, sl, fp, pc}
        if (x0 > x1) { int16_t t = x0; x0 = x1; x1 = t; }
 8000fa2:	4290      	cmp	r0, r2
 8000fa4:	dd02      	ble.n	8000fac <MD_DrawLine+0x128>
 8000fa6:	4603      	mov	r3, r0
 8000fa8:	4610      	mov	r0, r2
 8000faa:	461a      	mov	r2, r3
        MD_DrawHLine(x0, y0, x1 - x0 + 1, color);
 8000fac:	b280      	uxth	r0, r0
    if (x >= LCD_WIDTH || y >= LCD_HEIGHT || len == 0) return;
 8000fae:	f5b0 7f48 	cmp.w	r0, #800	; 0x320
 8000fb2:	d2f3      	bcs.n	8000f9c <MD_DrawLine+0x118>
        MD_DrawHLine(x0, y0, x1 - x0 + 1, color);
 8000fb4:	b289      	uxth	r1, r1
    if (x >= LCD_WIDTH || y >= LCD_HEIGHT || len == 0) return;
 8000fb6:	f5b1 7ff0 	cmp.w	r1, #480	; 0x1e0
 8000fba:	d2ef      	bcs.n	8000f9c <MD_DrawLine+0x118>
        MD_DrawHLine(x0, y0, x1 - x0 + 1, color);
 8000fbc:	b292      	uxth	r2, r2
 8000fbe:	1c54      	adds	r4, r2, #1
 8000fc0:	1a24      	subs	r4, r4, r0
 8000fc2:	b2a4      	uxth	r4, r4
    if (x >= LCD_WIDTH || y >= LCD_HEIGHT || len == 0) return;
 8000fc4:	2c00      	cmp	r4, #0
 8000fc6:	d0e9      	beq.n	8000f9c <MD_DrawLine+0x118>
    if (x + len > LCD_WIDTH) len = LCD_WIDTH - x;
 8000fc8:	1903      	adds	r3, r0, r4
 8000fca:	f5b3 7f48 	cmp.w	r3, #800	; 0x320
 8000fce:	dc5e      	bgt.n	800108e <MD_DrawLine+0x20a>
    LCD_CMD = cmd;
 8000fd0:	f04f 43c0 	mov.w	r3, #1610612736	; 0x60000000
    LCD_DATA = data;
 8000fd4:	4d31      	ldr	r5, [pc, #196]	; (800109c <MD_DrawLine+0x218>)
    LCD_CMD = cmd;
 8000fd6:	2602      	movs	r6, #2
 8000fd8:	801e      	strh	r6, [r3, #0]
 8000fda:	2603      	movs	r6, #3
    LCD_DATA = data;
 8000fdc:	8029      	strh	r1, [r5, #0]
    LCD_CMD = cmd;
 8000fde:	801e      	strh	r6, [r3, #0]
    LCD_DATA = data;
 8000fe0:	8028      	strh	r0, [r5, #0]
    LCD_CMD = cmd;
 8000fe2:	2006      	movs	r0, #6
 8000fe4:	8018      	strh	r0, [r3, #0]
    LCD_DATA = data;
 8000fe6:	8029      	strh	r1, [r5, #0]
    LCD_CMD = cmd;
 8000fe8:	2107      	movs	r1, #7
 8000fea:	8019      	strh	r1, [r3, #0]
    LCD_DATA = data;
 8000fec:	802a      	strh	r2, [r5, #0]
    LCD_CMD = cmd;
 8000fee:	9906      	ldr	r1, [sp, #24]
 8000ff0:	220f      	movs	r2, #15
 8000ff2:	801a      	strh	r2, [r3, #0]
 8000ff4:	2300      	movs	r3, #0
    for (uint16_t i = 0; i < len; i++)
 8000ff6:	3301      	adds	r3, #1
 8000ff8:	b29a      	uxth	r2, r3
 8000ffa:	42a2      	cmp	r2, r4
        LCD_DATA = color;
 8000ffc:	8029      	strh	r1, [r5, #0]
    for (uint16_t i = 0; i < len; i++)
 8000ffe:	d3fa      	bcc.n	8000ff6 <MD_DrawLine+0x172>
 8001000:	e7cc      	b.n	8000f9c <MD_DrawLine+0x118>
    int16_t sx = (x0 < x1) ? 1 : -1;
 8001002:	2401      	movs	r4, #1
 8001004:	9403      	str	r4, [sp, #12]
    int16_t sy = (y0 < y1) ? 1 : -1;
 8001006:	f04f 3aff 	mov.w	sl, #4294967295
 800100a:	e76e      	b.n	8000eea <MD_DrawLine+0x66>
    int16_t dy = (y1 > y0) ? (y1 - y0) : (y0 - y1);
 800100c:	1a5b      	subs	r3, r3, r1
 800100e:	b29c      	uxth	r4, r3
 8001010:	9405      	str	r4, [sp, #20]
 8001012:	f04f 34ff 	mov.w	r4, #4294967295
 8001016:	b21b      	sxth	r3, r3
 8001018:	9403      	str	r4, [sp, #12]
    int16_t sy = (y0 < y1) ? 1 : -1;
 800101a:	f04f 0a01 	mov.w	sl, #1
 800101e:	e764      	b.n	8000eea <MD_DrawLine+0x66>
        if (y0 > y1) { int16_t t = y0; y0 = y1; y1 = t; }
 8001020:	4299      	cmp	r1, r3
 8001022:	461a      	mov	r2, r3
 8001024:	dd02      	ble.n	800102c <MD_DrawLine+0x1a8>
 8001026:	460b      	mov	r3, r1
 8001028:	9307      	str	r3, [sp, #28]
 800102a:	4611      	mov	r1, r2
        MD_DrawVLine(x0, y0, y1 - y0 + 1, color);
 800102c:	b280      	uxth	r0, r0
    if (x >= LCD_WIDTH || y >= LCD_HEIGHT || len == 0) return;
 800102e:	f5b0 7f48 	cmp.w	r0, #800	; 0x320
 8001032:	d2b3      	bcs.n	8000f9c <MD_DrawLine+0x118>
        MD_DrawVLine(x0, y0, y1 - y0 + 1, color);
 8001034:	b289      	uxth	r1, r1
    if (x >= LCD_WIDTH || y >= LCD_HEIGHT || len == 0) return;
 8001036:	f5b1 7ff0 	cmp.w	r1, #480	; 0x1e0
 800103a:	d2af      	bcs.n	8000f9c <MD_DrawLine+0x118>
        MD_DrawVLine(x0, y0, y1 - y0 + 1, color);
 800103c:	f8bd 501c 	ldrh.w	r5, [sp, #28]
 8001040:	1c6a      	adds	r2, r5, #1
 8001042:	1a52      	subs	r2, r2, r1
 8001044:	b292      	uxth	r2, r2
    if (x >= LCD_WIDTH || y >= LCD_HEIGHT || len == 0) return;
 8001046:	2a00      	cmp	r2, #0
 8001048:	d0a8      	beq.n	8000f9c <MD_DrawLine+0x118>
    if (y + len > LCD_HEIGHT) len = LCD_HEIGHT - y;
 800104a:	188b      	adds	r3, r1, r2
 800104c:	f5b3 7ff0 	cmp.w	r3, #480	; 0x1e0
 8001050:	dd04      	ble.n	800105c <MD_DrawLine+0x1d8>
 8001052:	f5c1 72f0 	rsb	r2, r1, #480	; 0x1e0
 8001056:	b292      	uxth	r2, r2
 8001058:	f240 15df 	movw	r5, #479	; 0x1df
    LCD_CMD = cmd;
 800105c:	f04f 43c0 	mov.w	r3, #1610612736	; 0x60000000
    LCD_DATA = data;
 8001060:	4c0e      	ldr	r4, [pc, #56]	; (800109c <MD_DrawLine+0x218>)
    LCD_CMD = cmd;
 8001062:	2602      	movs	r6, #2
 8001064:	801e      	strh	r6, [r3, #0]
    LCD_DATA = data;
 8001066:	8021      	strh	r1, [r4, #0]
    LCD_CMD = cmd;
 8001068:	2103      	movs	r1, #3
 800106a:	8019      	strh	r1, [r3, #0]
 800106c:	2106      	movs	r1, #6
    LCD_DATA = data;
 800106e:	8020      	strh	r0, [r4, #0]
    LCD_CMD = cmd;
 8001070:	8019      	strh	r1, [r3, #0]
 8001072:	2107      	movs	r1, #7
    LCD_DATA = data;
 8001074:	8025      	strh	r5, [r4, #0]
    LCD_CMD = cmd;
 8001076:	8019      	strh	r1, [r3, #0]
    LCD_DATA = data;
 8001078:	8020      	strh	r0, [r4, #0]
    LCD_CMD = cmd;
 800107a:	210f      	movs	r1, #15
 800107c:	9806      	ldr	r0, [sp, #24]
 800107e:	8019      	strh	r1, [r3, #0]
 8001080:	2300      	movs	r3, #0
    for (uint16_t i = 0; i < len; i++)
 8001082:	3301      	adds	r3, #1
 8001084:	b299      	uxth	r1, r3
 8001086:	428a      	cmp	r2, r1
        LCD_DATA = color;
 8001088:	8020      	strh	r0, [r4, #0]
    for (uint16_t i = 0; i < len; i++)
 800108a:	d8fa      	bhi.n	8001082 <MD_DrawLine+0x1fe>
 800108c:	e786      	b.n	8000f9c <MD_DrawLine+0x118>
    if (x + len > LCD_WIDTH) len = LCD_WIDTH - x;
 800108e:	f5c0 7448 	rsb	r4, r0, #800	; 0x320
 8001092:	b2a4      	uxth	r4, r4
 8001094:	f240 321f 	movw	r2, #799	; 0x31f
 8001098:	e79a      	b.n	8000fd0 <MD_DrawLine+0x14c>
 800109a:	bf00      	nop
 800109c:	60080000 	.word	0x60080000

080010a0 <MD_DrawRect>:

/* ================================================================
 * Прямоугольник (контур)
 * ================================================================ */
void MD_DrawRect(uint16_t x, uint16_t y, uint16_t w, uint16_t h, uint16_t color)
{
 80010a0:	e92d 47f0 	stmdb	sp!, {r4, r5, r6, r7, r8, r9, sl, lr}
 80010a4:	f8bd c020 	ldrh.w	ip, [sp, #32]
    if (w == 0 || h == 0) return;
 80010a8:	2a00      	cmp	r2, #0
 80010aa:	f000 80d0 	beq.w	800124e <MD_DrawRect+0x1ae>
 80010ae:	2b00      	cmp	r3, #0
 80010b0:	f000 80cd 	beq.w	800124e <MD_DrawRect+0x1ae>
    if (x >= LCD_WIDTH || y >= LCD_HEIGHT || len == 0) return;
 80010b4:	f5b0 7f48 	cmp.w	r0, #800	; 0x320
 80010b8:	f080 80d8 	bcs.w	800126c <MD_DrawRect+0x1cc>
 80010bc:	f5b1 7ff0 	cmp.w	r1, #480	; 0x1e0
 80010c0:	f080 80c7 	bcs.w	8001252 <MD_DrawRect+0x1b2>
    if (x + len > LCD_WIDTH) len = LCD_WIDTH - x;
 80010c4:	1887      	adds	r7, r0, r2
 80010c6:	f5b7 7f48 	cmp.w	r7, #800	; 0x320
 80010ca:	f300 80e9 	bgt.w	80012a0 <MD_DrawRect+0x200>
 80010ce:	1e46      	subs	r6, r0, #1
 80010d0:	b2b6      	uxth	r6, r6

    MD_DrawHLine(x, y, w, color);
    MD_DrawHLine(x, y + h - 1, w, color);
    MD_DrawVLine(x, y, h, color);
    MD_DrawVLine(x + w - 1, y, h, color);
 80010d2:	eb02 0e06 	add.w	lr, r2, r6
 80010d6:	fa1f fe8e 	uxth.w	lr, lr
 80010da:	4690      	mov	r8, r2
    LCD_CMD = cmd;
 80010dc:	f04f 44c0 	mov.w	r4, #1610612736	; 0x60000000
    LCD_DATA = data;
 80010e0:	4d74      	ldr	r5, [pc, #464]	; (80012b4 <MD_DrawRect+0x214>)
    LCD_CMD = cmd;
 80010e2:	f04f 0902 	mov.w	r9, #2
 80010e6:	f8a4 9000 	strh.w	r9, [r4]
 80010ea:	f04f 0903 	mov.w	r9, #3
    LCD_DATA = data;
 80010ee:	8029      	strh	r1, [r5, #0]
    LCD_CMD = cmd;
 80010f0:	f8a4 9000 	strh.w	r9, [r4]
 80010f4:	f04f 0906 	mov.w	r9, #6
    LCD_DATA = data;
 80010f8:	8028      	strh	r0, [r5, #0]
    LCD_CMD = cmd;
 80010fa:	f8a4 9000 	strh.w	r9, [r4]
 80010fe:	f04f 0907 	mov.w	r9, #7
    LCD_DATA = data;
 8001102:	8029      	strh	r1, [r5, #0]
    LCD_CMD = cmd;
 8001104:	f8a4 9000 	strh.w	r9, [r4]
    LCD_DATA = data;
 8001108:	f8a5 e000 	strh.w	lr, [r5]
    LCD_CMD = cmd;
 800110c:	f04f 0e0f 	mov.w	lr, #15
 8001110:	f8a4 e000 	strh.w	lr, [r4]
 8001114:	f04f 0e00 	mov.w	lr, #0
    for (uint16_t i = 0; i < len; i++)
 8001118:	f10e 0e01 	add.w	lr, lr, #1
 800111c:	fa1f f48e 	uxth.w	r4, lr
 8001120:	45a0      	cmp	r8, r4
        LCD_DATA = color;
 8001122:	f8a5 c000 	strh.w	ip, [r5]
    for (uint16_t i = 0; i < len; i++)
 8001126:	d8f7      	bhi.n	8001118 <MD_DrawRect+0x78>
    MD_DrawHLine(x, y + h - 1, w, color);
 8001128:	f101 38ff 	add.w	r8, r1, #4294967295
 800112c:	fa1f f588 	uxth.w	r5, r8
 8001130:	195c      	adds	r4, r3, r5
 8001132:	fa1f f984 	uxth.w	r9, r4
    if (x >= LCD_WIDTH || y >= LCD_HEIGHT || len == 0) return;
 8001136:	f5b9 7ff0 	cmp.w	r9, #480	; 0x1e0
 800113a:	d235      	bcs.n	80011a8 <MD_DrawRect+0x108>
    if (x + len > LCD_WIDTH) len = LCD_WIDTH - x;
 800113c:	f5b7 7f48 	cmp.w	r7, #800	; 0x320
 8001140:	f300 80a8 	bgt.w	8001294 <MD_DrawRect+0x1f4>
    MD_DrawVLine(x + w - 1, y, h, color);
 8001144:	eb02 0e06 	add.w	lr, r2, r6
 8001148:	fa1f fe8e 	uxth.w	lr, lr
 800114c:	4617      	mov	r7, r2
    LCD_CMD = cmd;
 800114e:	f04f 44c0 	mov.w	r4, #1610612736	; 0x60000000
    LCD_DATA = data;
 8001152:	4d58      	ldr	r5, [pc, #352]	; (80012b4 <MD_DrawRect+0x214>)
    LCD_CMD = cmd;
 8001154:	f04f 0a02 	mov.w	sl, #2
 8001158:	f8a4 a000 	strh.w	sl, [r4]
 800115c:	f04f 0a03 	mov.w	sl, #3
    LCD_DATA = data;
 8001160:	f8a5 9000 	strh.w	r9, [r5]
    LCD_CMD = cmd;
 8001164:	f8a4 a000 	strh.w	sl, [r4]
 8001168:	f04f 0a06 	mov.w	sl, #6
    LCD_DATA = data;
 800116c:	8028      	strh	r0, [r5, #0]
    LCD_CMD = cmd;
 800116e:	f8a4 a000 	strh.w	sl, [r4]
 8001172:	f04f 0a07 	mov.w	sl, #7
    LCD_DATA = data;
 8001176:	f8a5 9000 	strh.w	r9, [r5]
    LCD_CMD = cmd;
 800117a:	f8a4 a000 	strh.w	sl, [r4]
    LCD_DATA = data;
 800117e:	f8a5 e000 	strh.w	lr, [r5]
    LCD_CMD = cmd;
 8001182:	f04f 0e0f 	mov.w	lr, #15
 8001186:	f8a4 e000 	strh.w	lr, [r4]
 800118a:	f04f 0e00 	mov.w	lr, #0
    for (uint16_t i = 0; i < len; i++)
 800118e:	f10e 0e01 	add.w	lr, lr, #1
 8001192:	fa1f f48e 	uxth.w	r4, lr
 8001196:	42bc      	cmp	r4, r7
        LCD_DATA = color;
 8001198:	f8a5 c000 	strh.w	ip, [r5]
    for (uint16_t i = 0; i < len; i++)
 800119c:	d3f7      	bcc.n	800118e <MD_DrawRect+0xee>
    if (x >= LCD_WIDTH || y >= LCD_HEIGHT || len == 0) return;
 800119e:	f5b1 7ff0 	cmp.w	r1, #480	; 0x1e0
 80011a2:	d254      	bcs.n	800124e <MD_DrawRect+0x1ae>
 80011a4:	fa1f f588 	uxth.w	r5, r8
    LCD_CMD = cmd;
 80011a8:	f04f 4ec0 	mov.w	lr, #1610612736	; 0x60000000
    LCD_DATA = data;
 80011ac:	4c41      	ldr	r4, [pc, #260]	; (80012b4 <MD_DrawRect+0x214>)
    LCD_CMD = cmd;
 80011ae:	f04f 0a02 	mov.w	sl, #2
    if (y + len > LCD_HEIGHT) len = LCD_HEIGHT - y;
 80011b2:	eb01 0803 	add.w	r8, r1, r3
    LCD_CMD = cmd;
 80011b6:	f8ae a000 	strh.w	sl, [lr]
    if (y + len > LCD_HEIGHT) len = LCD_HEIGHT - y;
 80011ba:	f5b8 7ff0 	cmp.w	r8, #480	; 0x1e0
    LCD_CMD = cmd;
 80011be:	f04f 0a03 	mov.w	sl, #3
    LCD_DATA = data;
 80011c2:	8021      	strh	r1, [r4, #0]
    if (y + len > LCD_HEIGHT) len = LCD_HEIGHT - y;
 80011c4:	bfc8      	it	gt
 80011c6:	f240 19df 	movwgt	r9, #479	; 0x1df
    LCD_CMD = cmd;
 80011ca:	f8ae a000 	strh.w	sl, [lr]
 80011ce:	f04f 0a06 	mov.w	sl, #6
    LCD_DATA = data;
 80011d2:	8020      	strh	r0, [r4, #0]
    LCD_CMD = cmd;
 80011d4:	f8ae a000 	strh.w	sl, [lr]
    LCD_DATA = data;
 80011d8:	f8a4 9000 	strh.w	r9, [r4]
    LCD_CMD = cmd;
 80011dc:	f04f 0907 	mov.w	r9, #7
 80011e0:	f8ae 9000 	strh.w	r9, [lr]
    if (y + len > LCD_HEIGHT) len = LCD_HEIGHT - y;
 80011e4:	bfc8      	it	gt
 80011e6:	f5c1 77f0 	rsbgt	r7, r1, #480	; 0x1e0
    LCD_DATA = data;
 80011ea:	8020      	strh	r0, [r4, #0]
    LCD_CMD = cmd;
 80011ec:	f04f 000f 	mov.w	r0, #15
 80011f0:	f8ae 0000 	strh.w	r0, [lr]
    if (y + len > LCD_HEIGHT) len = LCD_HEIGHT - y;
 80011f4:	bfcc      	ite	gt
 80011f6:	b2bf      	uxthgt	r7, r7
 80011f8:	461f      	movle	r7, r3
    LCD_CMD = cmd;
 80011fa:	2000      	movs	r0, #0
    for (uint16_t i = 0; i < len; i++)
 80011fc:	3001      	adds	r0, #1
 80011fe:	fa1f fe80 	uxth.w	lr, r0
 8001202:	4577      	cmp	r7, lr
        LCD_DATA = color;
 8001204:	f8a4 c000 	strh.w	ip, [r4]
    for (uint16_t i = 0; i < len; i++)
 8001208:	d8f8      	bhi.n	80011fc <MD_DrawRect+0x15c>
    MD_DrawVLine(x + w - 1, y, h, color);
 800120a:	1990      	adds	r0, r2, r6
 800120c:	b280      	uxth	r0, r0
    if (x >= LCD_WIDTH || y >= LCD_HEIGHT || len == 0) return;
 800120e:	f5b0 7f48 	cmp.w	r0, #800	; 0x320
 8001212:	d21c      	bcs.n	800124e <MD_DrawRect+0x1ae>
    if (y + len > LCD_HEIGHT) len = LCD_HEIGHT - y;
 8001214:	f5b8 7ff0 	cmp.w	r8, #480	; 0x1e0
 8001218:	dc36      	bgt.n	8001288 <MD_DrawRect+0x1e8>
    MD_DrawHLine(x, y + h - 1, w, color);
 800121a:	441d      	add	r5, r3
 800121c:	b2ad      	uxth	r5, r5
    LCD_CMD = cmd;
 800121e:	f04f 42c0 	mov.w	r2, #1610612736	; 0x60000000
    LCD_DATA = data;
 8001222:	4c24      	ldr	r4, [pc, #144]	; (80012b4 <MD_DrawRect+0x214>)
    LCD_CMD = cmd;
 8001224:	2602      	movs	r6, #2
 8001226:	8016      	strh	r6, [r2, #0]
    LCD_DATA = data;
 8001228:	8021      	strh	r1, [r4, #0]
    LCD_CMD = cmd;
 800122a:	2103      	movs	r1, #3
 800122c:	8011      	strh	r1, [r2, #0]
 800122e:	2106      	movs	r1, #6
    LCD_DATA = data;
 8001230:	8020      	strh	r0, [r4, #0]
    LCD_CMD = cmd;
 8001232:	8011      	strh	r1, [r2, #0]
 8001234:	2107      	movs	r1, #7
    LCD_DATA = data;
 8001236:	8025      	strh	r5, [r4, #0]
    LCD_CMD = cmd;
 8001238:	8011      	strh	r1, [r2, #0]
    LCD_CMD = cmd;
 800123a:	210f      	movs	r1, #15
    LCD_DATA = data;
 800123c:	8020      	strh	r0, [r4, #0]
    LCD_CMD = cmd;
 800123e:	8011      	strh	r1, [r2, #0]
 8001240:	2200      	movs	r2, #0
    for (uint16_t i = 0; i < len; i++)
 8001242:	3201      	adds	r2, #1
 8001244:	b291      	uxth	r1, r2
 8001246:	428b      	cmp	r3, r1
        LCD_DATA = color;
 8001248:	f8a4 c000 	strh.w	ip, [r4]
    for (uint16_t i = 0; i < len; i++)
 800124c:	d8f9      	bhi.n	8001242 <MD_DrawRect+0x1a2>
}
 800124e:	e8bd 87f0 	ldmia.w	sp!, {r4, r5, r6, r7, r8, r9, sl, pc}
    MD_DrawHLine(x, y + h - 1, w, color);
 8001252:	f101 38ff 	add.w	r8, r1, #4294967295
 8001256:	eb03 0408 	add.w	r4, r3, r8
 800125a:	fa1f f984 	uxth.w	r9, r4
    if (x >= LCD_WIDTH || y >= LCD_HEIGHT || len == 0) return;
 800125e:	f5b9 7ff0 	cmp.w	r9, #480	; 0x1e0
 8001262:	d2f4      	bcs.n	800124e <MD_DrawRect+0x1ae>
 8001264:	1e46      	subs	r6, r0, #1
 8001266:	b2b6      	uxth	r6, r6
    if (x + len > LCD_WIDTH) len = LCD_WIDTH - x;
 8001268:	1817      	adds	r7, r2, r0
 800126a:	e767      	b.n	800113c <MD_DrawRect+0x9c>
    MD_DrawVLine(x + w - 1, y, h, color);
 800126c:	3801      	subs	r0, #1
 800126e:	4410      	add	r0, r2
 8001270:	b280      	uxth	r0, r0
    if (x >= LCD_WIDTH || y >= LCD_HEIGHT || len == 0) return;
 8001272:	f5b0 7f48 	cmp.w	r0, #800	; 0x320
 8001276:	d2ea      	bcs.n	800124e <MD_DrawRect+0x1ae>
 8001278:	f5b1 7ff0 	cmp.w	r1, #480	; 0x1e0
 800127c:	d2e7      	bcs.n	800124e <MD_DrawRect+0x1ae>
 800127e:	1e4d      	subs	r5, r1, #1
    if (y + len > LCD_HEIGHT) len = LCD_HEIGHT - y;
 8001280:	eb03 0801 	add.w	r8, r3, r1
 8001284:	b2ad      	uxth	r5, r5
 8001286:	e7c5      	b.n	8001214 <MD_DrawRect+0x174>
 8001288:	f5c1 73f0 	rsb	r3, r1, #480	; 0x1e0
 800128c:	b29b      	uxth	r3, r3
 800128e:	f240 15df 	movw	r5, #479	; 0x1df
 8001292:	e7c4      	b.n	800121e <MD_DrawRect+0x17e>
    if (x + len > LCD_WIDTH) len = LCD_WIDTH - x;
 8001294:	f5c0 7748 	rsb	r7, r0, #800	; 0x320
 8001298:	b2bf      	uxth	r7, r7
 800129a:	f240 3e1f 	movw	lr, #799	; 0x31f
 800129e:	e756      	b.n	800114e <MD_DrawRect+0xae>
 80012a0:	f5c0 7848 	rsb	r8, r0, #800	; 0x320
 80012a4:	1e46      	subs	r6, r0, #1
 80012a6:	fa1f f888 	uxth.w	r8, r8
 80012aa:	b2b6      	uxth	r6, r6
 80012ac:	f240 3e1f 	movw	lr, #799	; 0x31f
 80012b0:	e714      	b.n	80010dc <MD_DrawRect+0x3c>
 80012b2:	bf00      	nop
 80012b4:	60080000 	.word	0x60080000

080012b8 <MD_FillRect>:

/* ================================================================
 * Прямоугольник (заливка)
 * ================================================================ */
void MD_FillRect(uint16_t x, uint16_t y, uint16_t w, uint16_t h, uint16_t color)
{
 80012b8:	b570      	push	{r4, r5, r6, lr}
    if (x >= LCD_WIDTH || y >= LCD_HEIGHT || w == 0 || h == 0) return;
 80012ba:	f5b0 7f48 	cmp.w	r0, #800	; 0x320
{
 80012be:	f8bd c010 	ldrh.w	ip, [sp, #16]
    if (x >= LCD_WIDTH || y >= LCD_HEIGHT || w == 0 || h == 0) return;
 80012c2:	d260      	bcs.n	8001386 <MD_FillRect+0xce>
 80012c4:	f5b1 7ff0 	cmp.w	r1, #480	; 0x1e0
 80012c8:	d25d      	bcs.n	8001386 <MD_FillRect+0xce>
 80012ca:	2a00      	cmp	r2, #0
 80012cc:	d05b      	beq.n	8001386 <MD_FillRect+0xce>
 80012ce:	2b00      	cmp	r3, #0
 80012d0:	d059      	beq.n	8001386 <MD_FillRect+0xce>
    if (x + w > LCD_WIDTH) w = LCD_WIDTH - x;
 80012d2:	1884      	adds	r4, r0, r2
 80012d4:	f5b4 7f48 	cmp.w	r4, #800	; 0x320
 80012d8:	dc5c      	bgt.n	8001394 <MD_FillRect+0xdc>
    if (y + h > LCD_HEIGHT) h = LCD_HEIGHT - y;

    MD_SetWindow(x, y, x + w - 1, y + h - 1);
 80012da:	1e54      	subs	r4, r2, #1
 80012dc:	4404      	add	r4, r0
 80012de:	b2a4      	uxth	r4, r4
    if (y + h > LCD_HEIGHT) h = LCD_HEIGHT - y;
 80012e0:	18cd      	adds	r5, r1, r3
 80012e2:	f5b5 7ff0 	cmp.w	r5, #480	; 0x1e0
 80012e6:	dc4f      	bgt.n	8001388 <MD_FillRect+0xd0>
    MD_SetWindow(x, y, x + w - 1, y + h - 1);
 80012e8:	1e5d      	subs	r5, r3, #1
 80012ea:	440d      	add	r5, r1
 80012ec:	b2ad      	uxth	r5, r5
    LCD_CMD = cmd;
 80012ee:	f04f 4ec0 	mov.w	lr, #1610612736	; 0x60000000

    uint32_t total = (uint32_t)w * h;
 80012f2:	fb03 f202 	mul.w	r2, r3, r2
    LCD_DATA = data;
 80012f6:	4b2a      	ldr	r3, [pc, #168]	; (80013a0 <MD_FillRect+0xe8>)
    LCD_CMD = cmd;
 80012f8:	2602      	movs	r6, #2
 80012fa:	f8ae 6000 	strh.w	r6, [lr]
    LCD_DATA = data;
 80012fe:	8019      	strh	r1, [r3, #0]
    LCD_CMD = cmd;
 8001300:	2103      	movs	r1, #3
 8001302:	f8ae 1000 	strh.w	r1, [lr]
 8001306:	2106      	movs	r1, #6
    LCD_DATA = data;
 8001308:	8018      	strh	r0, [r3, #0]
    LCD_CMD = cmd;
 800130a:	f8ae 1000 	strh.w	r1, [lr]
 800130e:	2107      	movs	r1, #7
    LCD_DATA = data;
 8001310:	801d      	strh	r5, [r3, #0]
    uint32_t blocks = total / 8;
 8001312:	08d0      	lsrs	r0, r2, #3
    LCD_CMD = cmd;
 8001314:	f8ae 1000 	strh.w	r1, [lr]
    LCD_CMD = cmd;
 8001318:	210f      	movs	r1, #15
    LCD_DATA = data;
 800131a:	801c      	strh	r4, [r3, #0]
    uint32_t remainder = total % 8;
 800131c:	f002 0207 	and.w	r2, r2, #7
    LCD_CMD = cmd;
 8001320:	f8ae 1000 	strh.w	r1, [lr]

    while (blocks--)
 8001324:	1e41      	subs	r1, r0, #1
 8001326:	b190      	cbz	r0, 800134e <MD_FillRect+0x96>
 8001328:	3901      	subs	r1, #1
 800132a:	1c48      	adds	r0, r1, #1
    {
        LCD_DATA = color; LCD_DATA = color; LCD_DATA = color; LCD_DATA = color;
 800132c:	f8a3 c000 	strh.w	ip, [r3]
 8001330:	f8a3 c000 	strh.w	ip, [r3]
 8001334:	f8a3 c000 	strh.w	ip, [r3]
 8001338:	f8a3 c000 	strh.w	ip, [r3]
        LCD_DATA = color; LCD_DATA = color; LCD_DATA = color; LCD_DATA = color;
 800133c:	f8a3 c000 	strh.w	ip, [r3]
 8001340:	f8a3 c000 	strh.w	ip, [r3]
 8001344:	f8a3 c000 	strh.w	ip, [r3]
 8001348:	f8a3 c000 	strh.w	ip, [r3]
    while (blocks--)
 800134c:	d1ec      	bne.n	8001328 <MD_FillRect+0x70>
    }

    while (remainder--)
 800134e:	b1d2      	cbz	r2, 8001386 <MD_FillRect+0xce>
    {
        LCD_DATA = color;
 8001350:	4b13      	ldr	r3, [pc, #76]	; (80013a0 <MD_FillRect+0xe8>)
    while (remainder--)
 8001352:	2a01      	cmp	r2, #1
        LCD_DATA = color;
 8001354:	f8a3 c000 	strh.w	ip, [r3]
    while (remainder--)
 8001358:	d015      	beq.n	8001386 <MD_FillRect+0xce>
 800135a:	2a02      	cmp	r2, #2
        LCD_DATA = color;
 800135c:	f8a3 c000 	strh.w	ip, [r3]
    while (remainder--)
 8001360:	d011      	beq.n	8001386 <MD_FillRect+0xce>
 8001362:	2a03      	cmp	r2, #3
        LCD_DATA = color;
 8001364:	f8a3 c000 	strh.w	ip, [r3]
    while (remainder--)
 8001368:	d00d      	beq.n	8001386 <MD_FillRect+0xce>
 800136a:	2a04      	cmp	r2, #4
        LCD_DATA = color;
 800136c:	f8a3 c000 	strh.w	ip, [r3]
    while (remainder--)
 8001370:	d009      	beq.n	8001386 <MD_FillRect+0xce>
 8001372:	2a05      	cmp	r2, #5
        LCD_DATA = color;
 8001374:	f8a3 c000 	strh.w	ip, [r3]
    while (remainder--)
 8001378:	d005      	beq.n	8001386 <MD_FillRect+0xce>
 800137a:	2a06      	cmp	r2, #6
        LCD_DATA = color;
 800137c:	f8a3 c000 	strh.w	ip, [r3]
 8001380:	bf18      	it	ne
 8001382:	f8a3 c000 	strhne.w	ip, [r3]
    }
}
 8001386:	bd70      	pop	{r4, r5, r6, pc}
    if (y + h > LCD_HEIGHT) h = LCD_HEIGHT - y;
 8001388:	f5c1 73f0 	rsb	r3, r1, #480	; 0x1e0
 800138c:	b29b      	uxth	r3, r3
 800138e:	f240 15df 	movw	r5, #479	; 0x1df
 8001392:	e7ac      	b.n	80012ee <MD_FillRect+0x36>
    if (x + w > LCD_WIDTH) w = LCD_WIDTH - x;
 8001394:	f5c0 7248 	rsb	r2, r0, #800	; 0x320
 8001398:	b292      	uxth	r2, r2
 800139a:	f240 341f 	movw	r4, #799	; 0x31f
 800139e:	e79f      	b.n	80012e0 <MD_FillRect+0x28>
 80013a0:	60080000 	.word	0x60080000

080013a4 <MD_DrawCircle>:

/* ================================================================
 * Круг (контур)
 * ================================================================ */
void MD_DrawCircle(int16_t x0, int16_t y0, int16_t r, uint16_t color)
{
 80013a4:	e92d 4ff0 	stmdb	sp!, {r4, r5, r6, r7, r8, r9, sl, fp, lr}
 80013a8:	b085      	sub	sp, #20
    int16_t x = r;
    int16_t y = 0;
    int16_t err = 0;

    while (x >= y)
 80013aa:	2a00      	cmp	r2, #0
 80013ac:	9201      	str	r2, [sp, #4]
 80013ae:	f2c0 8134 	blt.w	800161a <MD_DrawCircle+0x276>
    {
        MD_DrawPixel(x0 + x, y0 + y, color);
 80013b2:	b282      	uxth	r2, r0
 80013b4:	f04f 0900 	mov.w	r9, #0
 80013b8:	9203      	str	r2, [sp, #12]
 80013ba:	fa1f f881 	uxth.w	r8, r1
 80013be:	4696      	mov	lr, r2
 80013c0:	4694      	mov	ip, r2
    LCD_DATA = data;
 80013c2:	4997      	ldr	r1, [pc, #604]	; (8001620 <MD_DrawCircle+0x27c>)
    LCD_CMD = cmd;
 80013c4:	f8cd 9000 	str.w	r9, [sp]
    int16_t err = 0;
 80013c8:	4648      	mov	r0, r9
    LCD_CMD = cmd;
 80013ca:	f04f 42c0 	mov.w	r2, #1610612736	; 0x60000000
 80013ce:	f04f 0a02 	mov.w	sl, #2
    LCD_CMD = cmd;
 80013d2:	f04f 0b0f 	mov.w	fp, #15
 80013d6:	461f      	mov	r7, r3
 80013d8:	e017      	b.n	800140a <MD_DrawCircle+0x66>
        MD_DrawPixel(x0 + y, y0 - x, color);
        MD_DrawPixel(x0 + x, y0 - y, color);

        y++;
        if (err <= 0) err += 2 * y + 1;
        if (err > 0) { x--; err -= 2 * x + 1; }
 80013da:	3b01      	subs	r3, #1
 80013dc:	b29c      	uxth	r4, r3
 80013de:	eba0 0044 	sub.w	r0, r0, r4, lsl #1
 80013e2:	3801      	subs	r0, #1
 80013e4:	b21b      	sxth	r3, r3
 80013e6:	9301      	str	r3, [sp, #4]
 80013e8:	b200      	sxth	r0, r0
    while (x >= y)
 80013ea:	9b00      	ldr	r3, [sp, #0]
 80013ec:	9c01      	ldr	r4, [sp, #4]
 80013ee:	3301      	adds	r3, #1
 80013f0:	9300      	str	r3, [sp, #0]
 80013f2:	b21b      	sxth	r3, r3
 80013f4:	f10c 0c01 	add.w	ip, ip, #1
 80013f8:	f10e 3eff 	add.w	lr, lr, #4294967295
 80013fc:	42a3      	cmp	r3, r4
 80013fe:	fa1f fc8c 	uxth.w	ip, ip
 8001402:	fa1f fe8e 	uxth.w	lr, lr
 8001406:	f300 8108 	bgt.w	800161a <MD_DrawCircle+0x276>
        MD_DrawPixel(x0 + x, y0 + y, color);
 800140a:	f8bd 3004 	ldrh.w	r3, [sp, #4]
 800140e:	9c03      	ldr	r4, [sp, #12]
 8001410:	f8bd 5000 	ldrh.w	r5, [sp]
 8001414:	9502      	str	r5, [sp, #8]
 8001416:	191c      	adds	r4, r3, r4
 8001418:	b2a4      	uxth	r4, r4
 800141a:	4445      	add	r5, r8
    if (x >= LCD_WIDTH || y >= LCD_HEIGHT) return;
 800141c:	f5b4 7f48 	cmp.w	r4, #800	; 0x320
        MD_DrawPixel(x0 + x, y0 + y, color);
 8001420:	b2ad      	uxth	r5, r5
    if (x >= LCD_WIDTH || y >= LCD_HEIGHT) return;
 8001422:	d214      	bcs.n	800144e <MD_DrawCircle+0xaa>
 8001424:	f5b5 7ff0 	cmp.w	r5, #480	; 0x1e0
 8001428:	d211      	bcs.n	800144e <MD_DrawCircle+0xaa>
    LCD_CMD = cmd;
 800142a:	f04f 0603 	mov.w	r6, #3
 800142e:	f8a2 a000 	strh.w	sl, [r2]
    LCD_DATA = data;
 8001432:	800d      	strh	r5, [r1, #0]
    LCD_CMD = cmd;
 8001434:	8016      	strh	r6, [r2, #0]
 8001436:	f04f 0606 	mov.w	r6, #6
    LCD_DATA = data;
 800143a:	800c      	strh	r4, [r1, #0]
    LCD_CMD = cmd;
 800143c:	8016      	strh	r6, [r2, #0]
 800143e:	f04f 0607 	mov.w	r6, #7
    LCD_DATA = data;
 8001442:	800d      	strh	r5, [r1, #0]
    LCD_CMD = cmd;
 8001444:	8016      	strh	r6, [r2, #0]
    LCD_DATA = data;
 8001446:	800c      	strh	r4, [r1, #0]
    LCD_CMD = cmd;
 8001448:	f8a2 b000 	strh.w	fp, [r2]
    LCD_DATA = color;
 800144c:	800f      	strh	r7, [r1, #0]
        MD_DrawPixel(x0 + y, y0 + x, color);
 800144e:	eb03 0608 	add.w	r6, r3, r8
    if (x >= LCD_WIDTH || y >= LCD_HEIGHT) return;
 8001452:	f5bc 7f48 	cmp.w	ip, #800	; 0x320
        MD_DrawPixel(x0 + y, y0 + x, color);
 8001456:	b2b6      	uxth	r6, r6
    if (x >= LCD_WIDTH || y >= LCD_HEIGHT) return;
 8001458:	f080 80d6 	bcs.w	8001608 <MD_DrawCircle+0x264>
 800145c:	f5b6 7ff0 	cmp.w	r6, #480	; 0x1e0
 8001460:	d22f      	bcs.n	80014c2 <MD_DrawCircle+0x11e>
    LCD_CMD = cmd;
 8001462:	f04f 0903 	mov.w	r9, #3
 8001466:	f8a2 a000 	strh.w	sl, [r2]
    LCD_DATA = data;
 800146a:	800e      	strh	r6, [r1, #0]
    LCD_CMD = cmd;
 800146c:	f8a2 9000 	strh.w	r9, [r2]
 8001470:	f04f 0906 	mov.w	r9, #6
    LCD_DATA = data;
 8001474:	f8a1 c000 	strh.w	ip, [r1]
    if (x >= LCD_WIDTH || y >= LCD_HEIGHT) return;
 8001478:	f5be 7f48 	cmp.w	lr, #800	; 0x320
    LCD_CMD = cmd;
 800147c:	f8a2 9000 	strh.w	r9, [r2]
 8001480:	f04f 0907 	mov.w	r9, #7
    LCD_DATA = data;
 8001484:	800e      	strh	r6, [r1, #0]
    LCD_CMD = cmd;
 8001486:	f8a2 9000 	strh.w	r9, [r2]
    LCD_DATA = data;
 800148a:	f8a1 c000 	strh.w	ip, [r1]
    LCD_CMD = cmd;
 800148e:	f8a2 b000 	strh.w	fp, [r2]
    LCD_DATA = color;
 8001492:	800f      	strh	r7, [r1, #0]
    if (x >= LCD_WIDTH || y >= LCD_HEIGHT) return;
 8001494:	d215      	bcs.n	80014c2 <MD_DrawCircle+0x11e>
    LCD_CMD = cmd;
 8001496:	f04f 0903 	mov.w	r9, #3
 800149a:	f8a2 a000 	strh.w	sl, [r2]
    LCD_DATA = data;
 800149e:	800e      	strh	r6, [r1, #0]
    LCD_CMD = cmd;
 80014a0:	f8a2 9000 	strh.w	r9, [r2]
 80014a4:	f04f 0906 	mov.w	r9, #6
    LCD_DATA = data;
 80014a8:	f8a1 e000 	strh.w	lr, [r1]
    LCD_CMD = cmd;
 80014ac:	f8a2 9000 	strh.w	r9, [r2]
    LCD_DATA = data;
 80014b0:	800e      	strh	r6, [r1, #0]
    LCD_CMD = cmd;
 80014b2:	f04f 0607 	mov.w	r6, #7
 80014b6:	8016      	strh	r6, [r2, #0]
    LCD_DATA = data;
 80014b8:	f8a1 e000 	strh.w	lr, [r1]
    LCD_CMD = cmd;
 80014bc:	f8a2 b000 	strh.w	fp, [r2]
    LCD_DATA = color;
 80014c0:	800f      	strh	r7, [r1, #0]
        MD_DrawPixel(x0 - x, y0 + y, color);
 80014c2:	9e03      	ldr	r6, [sp, #12]
 80014c4:	1af6      	subs	r6, r6, r3
 80014c6:	b2b6      	uxth	r6, r6
    if (x >= LCD_WIDTH || y >= LCD_HEIGHT) return;
 80014c8:	f5b6 7f48 	cmp.w	r6, #800	; 0x320
 80014cc:	f080 8097 	bcs.w	80015fe <MD_DrawCircle+0x25a>
 80014d0:	f5b5 7ff0 	cmp.w	r5, #480	; 0x1e0
 80014d4:	d213      	bcs.n	80014fe <MD_DrawCircle+0x15a>
    LCD_CMD = cmd;
 80014d6:	f04f 0903 	mov.w	r9, #3
 80014da:	f8a2 a000 	strh.w	sl, [r2]
    LCD_DATA = data;
 80014de:	800d      	strh	r5, [r1, #0]
    LCD_CMD = cmd;
 80014e0:	f8a2 9000 	strh.w	r9, [r2]
 80014e4:	f04f 0906 	mov.w	r9, #6
    LCD_DATA = data;
 80014e8:	800e      	strh	r6, [r1, #0]
    LCD_CMD = cmd;
 80014ea:	f8a2 9000 	strh.w	r9, [r2]
    LCD_DATA = data;
 80014ee:	800d      	strh	r5, [r1, #0]
    LCD_CMD = cmd;
 80014f0:	f04f 0507 	mov.w	r5, #7
 80014f4:	8015      	strh	r5, [r2, #0]
    LCD_DATA = data;
 80014f6:	800e      	strh	r6, [r1, #0]
    LCD_CMD = cmd;
 80014f8:	f8a2 b000 	strh.w	fp, [r2]
    LCD_DATA = color;
 80014fc:	800f      	strh	r7, [r1, #0]
        MD_DrawPixel(x0 - x, y0 - y, color);
 80014fe:	9d02      	ldr	r5, [sp, #8]
 8001500:	eba8 0505 	sub.w	r5, r8, r5
 8001504:	b2ad      	uxth	r5, r5
    if (x >= LCD_WIDTH || y >= LCD_HEIGHT) return;
 8001506:	f5b5 7ff0 	cmp.w	r5, #480	; 0x1e0
 800150a:	d214      	bcs.n	8001536 <MD_DrawCircle+0x192>
    LCD_CMD = cmd;
 800150c:	f04f 0903 	mov.w	r9, #3
 8001510:	f8a2 a000 	strh.w	sl, [r2]
    LCD_DATA = data;
 8001514:	800d      	strh	r5, [r1, #0]
    LCD_CMD = cmd;
 8001516:	f8a2 9000 	strh.w	r9, [r2]
 800151a:	f04f 0906 	mov.w	r9, #6
    LCD_DATA = data;
 800151e:	800e      	strh	r6, [r1, #0]
    LCD_CMD = cmd;
 8001520:	f8a2 9000 	strh.w	r9, [r2]
 8001524:	f04f 0907 	mov.w	r9, #7
    LCD_DATA = data;
 8001528:	800d      	strh	r5, [r1, #0]
    LCD_CMD = cmd;
 800152a:	f8a2 9000 	strh.w	r9, [r2]
    LCD_DATA = data;
 800152e:	800e      	strh	r6, [r1, #0]
    LCD_CMD = cmd;
 8001530:	f8a2 b000 	strh.w	fp, [r2]
    LCD_DATA = color;
 8001534:	800f      	strh	r7, [r1, #0]
        MD_DrawPixel(x0 - y, y0 - x, color);
 8001536:	eba8 0603 	sub.w	r6, r8, r3
    if (x >= LCD_WIDTH || y >= LCD_HEIGHT) return;
 800153a:	f5be 7f48 	cmp.w	lr, #800	; 0x320
        MD_DrawPixel(x0 - y, y0 - x, color);
 800153e:	b2b6      	uxth	r6, r6
    if (x >= LCD_WIDTH || y >= LCD_HEIGHT) return;
 8001540:	d256      	bcs.n	80015f0 <MD_DrawCircle+0x24c>
 8001542:	f5b6 7ff0 	cmp.w	r6, #480	; 0x1e0
 8001546:	d22f      	bcs.n	80015a8 <MD_DrawCircle+0x204>
    LCD_CMD = cmd;
 8001548:	f04f 0903 	mov.w	r9, #3
 800154c:	f8a2 a000 	strh.w	sl, [r2]
    LCD_DATA = data;
 8001550:	800e      	strh	r6, [r1, #0]
    LCD_CMD = cmd;
 8001552:	f8a2 9000 	strh.w	r9, [r2]
 8001556:	f04f 0906 	mov.w	r9, #6
    LCD_DATA = data;
 800155a:	f8a1 e000 	strh.w	lr, [r1]
    if (x >= LCD_WIDTH || y >= LCD_HEIGHT) return;
 800155e:	f5bc 7f48 	cmp.w	ip, #800	; 0x320
    LCD_CMD = cmd;
 8001562:	f8a2 9000 	strh.w	r9, [r2]
 8001566:	f04f 0907 	mov.w	r9, #7
    LCD_DATA = data;
 800156a:	800e      	strh	r6, [r1, #0]
    LCD_CMD = cmd;
 800156c:	f8a2 9000 	strh.w	r9, [r2]
    LCD_DATA = data;
 8001570:	f8a1 e000 	strh.w	lr, [r1]
    LCD_CMD = cmd;
 8001574:	f8a2 b000 	strh.w	fp, [r2]
    LCD_DATA = color;
 8001578:	800f      	strh	r7, [r1, #0]
    if (x >= LCD_WIDTH || y >= LCD_HEIGHT) return;
 800157a:	d215      	bcs.n	80015a8 <MD_DrawCircle+0x204>
    LCD_CMD = cmd;
 800157c:	f04f 0903 	mov.w	r9, #3
 8001580:	f8a2 a000 	strh.w	sl, [r2]
    LCD_DATA = data;
 8001584:	800e      	strh	r6, [r1, #0]
    LCD_CMD = cmd;
 8001586:	f8a2 9000 	strh.w	r9, [r2]
 800158a:	f04f 0906 	mov.w	r9, #6
    LCD_DATA = data;
 800158e:	f8a1 c000 	strh.w	ip, [r1]
    LCD_CMD = cmd;
 8001592:	f8a2 9000 	strh.w	r9, [r2]
    LCD_DATA = data;
 8001596:	800e      	strh	r6, [r1, #0]
    LCD_CMD = cmd;
 8001598:	f04f 0607 	mov.w	r6, #7
 800159c:	8016      	strh	r6, [r2, #0]
    LCD_DATA = data;
 800159e:	f8a1 c000 	strh.w	ip, [r1]
    LCD_CMD = cmd;
 80015a2:	f8a2 b000 	strh.w	fp, [r2]
    LCD_DATA = color;
 80015a6:	800f      	strh	r7, [r1, #0]
    if (x >= LCD_WIDTH || y >= LCD_HEIGHT) return;
 80015a8:	f5b4 7f48 	cmp.w	r4, #800	; 0x320
 80015ac:	d214      	bcs.n	80015d8 <MD_DrawCircle+0x234>
 80015ae:	f5b5 7ff0 	cmp.w	r5, #480	; 0x1e0
 80015b2:	d211      	bcs.n	80015d8 <MD_DrawCircle+0x234>
    LCD_CMD = cmd;
 80015b4:	f04f 0603 	mov.w	r6, #3
 80015b8:	f8a2 a000 	strh.w	sl, [r2]
    LCD_DATA = data;
 80015bc:	800d      	strh	r5, [r1, #0]
    LCD_CMD = cmd;
 80015be:	8016      	strh	r6, [r2, #0]
 80015c0:	f04f 0606 	mov.w	r6, #6
    LCD_DATA = data;
 80015c4:	800c      	strh	r4, [r1, #0]
    LCD_CMD = cmd;
 80015c6:	8016      	strh	r6, [r2, #0]
    LCD_DATA = data;
 80015c8:	800d      	strh	r5, [r1, #0]
    LCD_CMD = cmd;
 80015ca:	f04f 0507 	mov.w	r5, #7
 80015ce:	8015      	strh	r5, [r2, #0]
    LCD_DATA = data;
 80015d0:	800c      	strh	r4, [r1, #0]
    LCD_CMD = cmd;
 80015d2:	f8a2 b000 	strh.w	fp, [r2]
    LCD_DATA = color;
 80015d6:	800f      	strh	r7, [r1, #0]
        if (err <= 0) err += 2 * y + 1;
 80015d8:	2800      	cmp	r0, #0
 80015da:	f73f aefe 	bgt.w	80013da <MD_DrawCircle+0x36>
 80015de:	9c02      	ldr	r4, [sp, #8]
 80015e0:	3003      	adds	r0, #3
 80015e2:	eb00 0044 	add.w	r0, r0, r4, lsl #1
 80015e6:	b200      	sxth	r0, r0
        if (err > 0) { x--; err -= 2 * x + 1; }
 80015e8:	2800      	cmp	r0, #0
 80015ea:	f77f aefe 	ble.w	80013ea <MD_DrawCircle+0x46>
 80015ee:	e6f4      	b.n	80013da <MD_DrawCircle+0x36>
    if (x >= LCD_WIDTH || y >= LCD_HEIGHT) return;
 80015f0:	f5bc 7f48 	cmp.w	ip, #800	; 0x320
 80015f4:	d2d8      	bcs.n	80015a8 <MD_DrawCircle+0x204>
 80015f6:	f5b6 7ff0 	cmp.w	r6, #480	; 0x1e0
 80015fa:	d3bf      	bcc.n	800157c <MD_DrawCircle+0x1d8>
 80015fc:	e7d4      	b.n	80015a8 <MD_DrawCircle+0x204>
        MD_DrawPixel(x0 - x, y0 - y, color);
 80015fe:	9d02      	ldr	r5, [sp, #8]
 8001600:	eba8 0505 	sub.w	r5, r8, r5
 8001604:	b2ad      	uxth	r5, r5
    if (x >= LCD_WIDTH || y >= LCD_HEIGHT) return;
 8001606:	e796      	b.n	8001536 <MD_DrawCircle+0x192>
 8001608:	f5be 7f48 	cmp.w	lr, #800	; 0x320
 800160c:	f4bf af59 	bcs.w	80014c2 <MD_DrawCircle+0x11e>
 8001610:	f5b6 7ff0 	cmp.w	r6, #480	; 0x1e0
 8001614:	f4ff af3f 	bcc.w	8001496 <MD_DrawCircle+0xf2>
 8001618:	e753      	b.n	80014c2 <MD_DrawCircle+0x11e>
    }
}
 800161a:	b005      	add	sp, #20
 800161c:	e8bd 8ff0 	ldmia.w	sp!, {r4, r5, r6, r7, r8, r9, sl, fp, pc}
 8001620:	60080000 	.word	0x60080000

08001624 <MD_FillCircle>:

/* ================================================================
 * Круг (заливка)
 * ================================================================ */
void MD_FillCircle(int16_t x0, int16_t y0, int16_t r, uint16_t color)
{
 8001624:	e92d 4ff0 	stmdb	sp!, {r4, r5, r6, r7, r8, r9, sl, fp, lr}
 8001628:	b089      	sub	sp, #36	; 0x24
    MD_DrawVLine(x0, y0 - r, 2 * r + 1, color);
 800162a:	b280      	uxth	r0, r0
{
 800162c:	9201      	str	r2, [sp, #4]
    MD_DrawVLine(x0, y0 - r, 2 * r + 1, color);
 800162e:	b292      	uxth	r2, r2
 8001630:	b289      	uxth	r1, r1
 8001632:	0055      	lsls	r5, r2, #1
    if (x >= LCD_WIDTH || y >= LCD_HEIGHT || len == 0) return;
 8001634:	f5b0 7f48 	cmp.w	r0, #800	; 0x320
    MD_DrawVLine(x0, y0 - r, 2 * r + 1, color);
 8001638:	9003      	str	r0, [sp, #12]
 800163a:	9102      	str	r1, [sp, #8]
 800163c:	b2ad      	uxth	r5, r5
    if (x >= LCD_WIDTH || y >= LCD_HEIGHT || len == 0) return;
 800163e:	d22d      	bcs.n	800169c <MD_FillCircle+0x78>
 8001640:	460e      	mov	r6, r1
    MD_DrawVLine(x0, y0 - r, 2 * r + 1, color);
 8001642:	1a89      	subs	r1, r1, r2
 8001644:	b289      	uxth	r1, r1
    if (x >= LCD_WIDTH || y >= LCD_HEIGHT || len == 0) return;
 8001646:	f5b1 7ff0 	cmp.w	r1, #480	; 0x1e0
 800164a:	d227      	bcs.n	800169c <MD_FillCircle+0x78>
    MD_DrawVLine(x0, y0 - r, 2 * r + 1, color);
 800164c:	1c6c      	adds	r4, r5, #1
 800164e:	b2a4      	uxth	r4, r4
    if (y + len > LCD_HEIGHT) len = LCD_HEIGHT - y;
 8001650:	1908      	adds	r0, r1, r4
 8001652:	f5b0 7ff0 	cmp.w	r0, #480	; 0x1e0
 8001656:	dd03      	ble.n	8001660 <MD_FillCircle+0x3c>
 8001658:	f502 74f0 	add.w	r4, r2, #480	; 0x1e0
 800165c:	1ba4      	subs	r4, r4, r6
 800165e:	b2a4      	uxth	r4, r4
    LCD_CMD = cmd;
 8001660:	f04f 47c0 	mov.w	r7, #1610612736	; 0x60000000
    LCD_DATA = data;
 8001664:	4eb3      	ldr	r6, [pc, #716]	; (8001934 <MD_FillCircle+0x310>)
    LCD_CMD = cmd;
 8001666:	f04f 0c02 	mov.w	ip, #2
 800166a:	f8a7 c000 	strh.w	ip, [r7]
    MD_SetWindow(x, y, x, y + len - 1);
 800166e:	1e48      	subs	r0, r1, #1
    LCD_DATA = data;
 8001670:	8031      	strh	r1, [r6, #0]
    LCD_CMD = cmd;
 8001672:	2103      	movs	r1, #3
 8001674:	8039      	strh	r1, [r7, #0]
    LCD_DATA = data;
 8001676:	9903      	ldr	r1, [sp, #12]
 8001678:	8031      	strh	r1, [r6, #0]
    MD_SetWindow(x, y, x, y + len - 1);
 800167a:	4420      	add	r0, r4
    LCD_CMD = cmd;
 800167c:	2106      	movs	r1, #6
 800167e:	8039      	strh	r1, [r7, #0]
    MD_SetWindow(x, y, x, y + len - 1);
 8001680:	b280      	uxth	r0, r0
    LCD_CMD = cmd;
 8001682:	2107      	movs	r1, #7
    LCD_DATA = data;
 8001684:	8030      	strh	r0, [r6, #0]
    LCD_CMD = cmd;
 8001686:	8039      	strh	r1, [r7, #0]
    LCD_DATA = data;
 8001688:	9903      	ldr	r1, [sp, #12]
 800168a:	8031      	strh	r1, [r6, #0]
    LCD_CMD = cmd;
 800168c:	210f      	movs	r1, #15
 800168e:	8039      	strh	r1, [r7, #0]
 8001690:	2100      	movs	r1, #0
    for (uint16_t i = 0; i < len; i++)
 8001692:	3101      	adds	r1, #1
 8001694:	b288      	uxth	r0, r1
 8001696:	4284      	cmp	r4, r0
        LCD_DATA = color;
 8001698:	8033      	strh	r3, [r6, #0]
    for (uint16_t i = 0; i < len; i++)
 800169a:	d8fa      	bhi.n	8001692 <MD_FillCircle+0x6e>
    int16_t ddF_y = -2 * r;
 800169c:	426d      	negs	r5, r5
 800169e:	b229      	sxth	r1, r5
 80016a0:	9104      	str	r1, [sp, #16]
    while (x < y)
 80016a2:	9901      	ldr	r1, [sp, #4]
    int16_t f = 1 - r;
 80016a4:	f1c2 0201 	rsb	r2, r2, #1
    while (x < y)
 80016a8:	2900      	cmp	r1, #0
    int16_t f = 1 - r;
 80016aa:	b212      	sxth	r2, r2
    while (x < y)
 80016ac:	f340 8138 	ble.w	8001920 <MD_FillCircle+0x2fc>
 80016b0:	9903      	ldr	r1, [sp, #12]
 80016b2:	9c02      	ldr	r4, [sp, #8]
 80016b4:	9305      	str	r3, [sp, #20]
 80016b6:	1e60      	subs	r0, r4, #1
 80016b8:	1e4f      	subs	r7, r1, #1
 80016ba:	1c4e      	adds	r6, r1, #1
    if (y + len > LCD_HEIGHT) len = LCD_HEIGHT - y;
 80016bc:	f5c4 74f0 	rsb	r4, r4, #480	; 0x1e0
    LCD_DATA = data;
 80016c0:	499c      	ldr	r1, [pc, #624]	; (8001934 <MD_FillCircle+0x310>)
    if (y + len > LCD_HEIGHT) len = LCD_HEIGHT - y;
 80016c2:	9407      	str	r4, [sp, #28]
 80016c4:	b280      	uxth	r0, r0
 80016c6:	b2bf      	uxth	r7, r7
 80016c8:	b2b6      	uxth	r6, r6
    while (x < y)
 80016ca:	2503      	movs	r5, #3
    LCD_CMD = cmd;
 80016cc:	f04f 4bc0 	mov.w	fp, #1610612736	; 0x60000000
        if (f >= 0)
 80016d0:	2a00      	cmp	r2, #0
 80016d2:	f2c0 8128 	blt.w	8001926 <MD_FillCircle+0x302>
            ddF_y += 2;
 80016d6:	9c04      	ldr	r4, [sp, #16]
            y--;
 80016d8:	9b01      	ldr	r3, [sp, #4]
            ddF_y += 2;
 80016da:	3402      	adds	r4, #2
            y--;
 80016dc:	f103 3cff 	add.w	ip, r3, #4294967295
            ddF_y += 2;
 80016e0:	b223      	sxth	r3, r4
            f += ddF_y;
 80016e2:	fa12 f284 	uxtah	r2, r2, r4
            ddF_y += 2;
 80016e6:	9304      	str	r3, [sp, #16]
            y--;
 80016e8:	fa0f f38c 	sxth.w	r3, ip
            f += ddF_y;
 80016ec:	b292      	uxth	r2, r2
            y--;
 80016ee:	fa1f f48c 	uxth.w	r4, ip
 80016f2:	9301      	str	r3, [sp, #4]
            MD_DrawVLine(x0 + x, y0 - y, 2 * y + 1 + delta, color);
 80016f4:	9b02      	ldr	r3, [sp, #8]
 80016f6:	ea4f 0c44 	mov.w	ip, r4, lsl #1
        f += ddF_x;
 80016fa:	442a      	add	r2, r5
            MD_DrawVLine(x0 + x, y0 - y, 2 * y + 1 + delta, color);
 80016fc:	f10c 0c01 	add.w	ip, ip, #1
 8001700:	eba3 0e04 	sub.w	lr, r3, r4
    if (x >= LCD_WIDTH || y >= LCD_HEIGHT || len == 0) return;
 8001704:	f5b6 7f48 	cmp.w	r6, #800	; 0x320
        f += ddF_x;
 8001708:	b212      	sxth	r2, r2
            MD_DrawVLine(x0 + x, y0 - y, 2 * y + 1 + delta, color);
 800170a:	fa1f fc8c 	uxth.w	ip, ip
 800170e:	fa1f fe8e 	uxth.w	lr, lr
    if (x >= LCD_WIDTH || y >= LCD_HEIGHT || len == 0) return;
 8001712:	d239      	bcs.n	8001788 <MD_FillCircle+0x164>
 8001714:	f5be 7ff0 	cmp.w	lr, #480	; 0x1e0
 8001718:	d236      	bcs.n	8001788 <MD_FillCircle+0x164>
    if (y + len > LCD_HEIGHT) len = LCD_HEIGHT - y;
 800171a:	eb0e 080c 	add.w	r8, lr, ip
 800171e:	f5b8 7ff0 	cmp.w	r8, #480	; 0x1e0
 8001722:	bfc4      	itt	gt
 8001724:	9b07      	ldrgt	r3, [sp, #28]
 8001726:	eb04 0a03 	addgt.w	sl, r4, r3
    LCD_CMD = cmd;
 800172a:	f04f 0302 	mov.w	r3, #2
 800172e:	f8ab 3000 	strh.w	r3, [fp]
    if (y + len > LCD_HEIGHT) len = LCD_HEIGHT - y;
 8001732:	bfc8      	it	gt
 8001734:	fa1f fa8a 	uxthgt.w	sl, sl
    LCD_CMD = cmd;
 8001738:	f04f 0303 	mov.w	r3, #3
 800173c:	bfd8      	it	le
 800173e:	46e2      	movle	sl, ip
    MD_SetWindow(x, y, x, y + len - 1);
 8001740:	f10e 38ff 	add.w	r8, lr, #4294967295
    LCD_DATA = data;
 8001744:	f8a1 e000 	strh.w	lr, [r1]
    MD_SetWindow(x, y, x, y + len - 1);
 8001748:	44d0      	add	r8, sl
    LCD_CMD = cmd;
 800174a:	f8ab 3000 	strh.w	r3, [fp]
 800174e:	f04f 0306 	mov.w	r3, #6
    LCD_DATA = data;
 8001752:	800e      	strh	r6, [r1, #0]
    MD_SetWindow(x, y, x, y + len - 1);
 8001754:	fa1f f888 	uxth.w	r8, r8
    LCD_CMD = cmd;
 8001758:	f8ab 3000 	strh.w	r3, [fp]
 800175c:	f04f 0307 	mov.w	r3, #7
    LCD_DATA = data;
 8001760:	f8a1 8000 	strh.w	r8, [r1]
    LCD_CMD = cmd;
 8001764:	f8ab 3000 	strh.w	r3, [fp]
    LCD_CMD = cmd;
 8001768:	f04f 030f 	mov.w	r3, #15
    LCD_DATA = data;
 800176c:	800e      	strh	r6, [r1, #0]
    LCD_CMD = cmd;
 800176e:	f8ab 3000 	strh.w	r3, [fp]
 8001772:	9b05      	ldr	r3, [sp, #20]
 8001774:	f04f 0800 	mov.w	r8, #0
    for (uint16_t i = 0; i < len; i++)
 8001778:	f108 0801 	add.w	r8, r8, #1
 800177c:	fa1f f988 	uxth.w	r9, r8
 8001780:	45ca      	cmp	sl, r9
        LCD_DATA = color;
 8001782:	800b      	strh	r3, [r1, #0]
    for (uint16_t i = 0; i < len; i++)
 8001784:	d8f8      	bhi.n	8001778 <MD_FillCircle+0x154>
 8001786:	9305      	str	r3, [sp, #20]
            MD_DrawVLine(x0 + y, y0 - x, 2 * x + 1 + delta, color);
 8001788:	9b03      	ldr	r3, [sp, #12]
 800178a:	eb03 0804 	add.w	r8, r3, r4
 800178e:	fa1f f888 	uxth.w	r8, r8
    if (x >= LCD_WIDTH || y >= LCD_HEIGHT || len == 0) return;
 8001792:	f5b8 7f48 	cmp.w	r8, #800	; 0x320
 8001796:	f080 80ca 	bcs.w	800192e <MD_FillCircle+0x30a>
 800179a:	f5b0 7ff0 	cmp.w	r0, #480	; 0x1e0
 800179e:	f080 80c6 	bcs.w	800192e <MD_FillCircle+0x30a>
    if (y + len > LCD_HEIGHT) len = LCD_HEIGHT - y;
 80017a2:	eb00 0905 	add.w	r9, r0, r5
 80017a6:	f5b9 7ff0 	cmp.w	r9, #480	; 0x1e0
 80017aa:	bfc2      	ittt	gt
 80017ac:	f5c0 79f0 	rsbgt	r9, r0, #480	; 0x1e0
 80017b0:	fa1f f389 	uxthgt.w	r3, r9
 80017b4:	469a      	movgt	sl, r3
    LCD_CMD = cmd;
 80017b6:	f04f 0302 	mov.w	r3, #2
 80017ba:	f8ab 3000 	strh.w	r3, [fp]
 80017be:	f04f 0303 	mov.w	r3, #3
    LCD_DATA = data;
 80017c2:	8008      	strh	r0, [r1, #0]
 80017c4:	bfd8      	it	le
 80017c6:	46aa      	movle	sl, r5
    LCD_CMD = cmd;
 80017c8:	f8ab 3000 	strh.w	r3, [fp]
    MD_SetWindow(x, y, x, y + len - 1);
 80017cc:	f100 39ff 	add.w	r9, r0, #4294967295
    LCD_CMD = cmd;
 80017d0:	f04f 0306 	mov.w	r3, #6
    LCD_DATA = data;
 80017d4:	f8a1 8000 	strh.w	r8, [r1]
    LCD_CMD = cmd;
 80017d8:	f8ab 3000 	strh.w	r3, [fp]
    MD_SetWindow(x, y, x, y + len - 1);
 80017dc:	4653      	mov	r3, sl
 80017de:	44ca      	add	sl, r9
 80017e0:	fa1f fa8a 	uxth.w	sl, sl
    LCD_DATA = data;
 80017e4:	f8a1 a000 	strh.w	sl, [r1]
    LCD_CMD = cmd;
 80017e8:	f04f 0a07 	mov.w	sl, #7
 80017ec:	f8ab a000 	strh.w	sl, [fp]
    LCD_DATA = data;
 80017f0:	f8a1 8000 	strh.w	r8, [r1]
    LCD_CMD = cmd;
 80017f4:	469a      	mov	sl, r3
 80017f6:	f04f 080f 	mov.w	r8, #15
 80017fa:	9b05      	ldr	r3, [sp, #20]
 80017fc:	f8ab 8000 	strh.w	r8, [fp]
 8001800:	f04f 0800 	mov.w	r8, #0
 8001804:	9406      	str	r4, [sp, #24]
    for (uint16_t i = 0; i < len; i++)
 8001806:	f108 0801 	add.w	r8, r8, #1
 800180a:	fa1f f488 	uxth.w	r4, r8
 800180e:	45a2      	cmp	sl, r4
        LCD_DATA = color;
 8001810:	800b      	strh	r3, [r1, #0]
    for (uint16_t i = 0; i < len; i++)
 8001812:	d8f8      	bhi.n	8001806 <MD_FillCircle+0x1e2>
 8001814:	9c06      	ldr	r4, [sp, #24]
 8001816:	9305      	str	r3, [sp, #20]
    if (x >= LCD_WIDTH || y >= LCD_HEIGHT || len == 0) return;
 8001818:	f5b7 7f48 	cmp.w	r7, #800	; 0x320
 800181c:	d236      	bcs.n	800188c <MD_FillCircle+0x268>
 800181e:	f5be 7ff0 	cmp.w	lr, #480	; 0x1e0
 8001822:	d233      	bcs.n	800188c <MD_FillCircle+0x268>
    if (y + len > LCD_HEIGHT) len = LCD_HEIGHT - y;
 8001824:	eb0e 080c 	add.w	r8, lr, ip
 8001828:	f5b8 7ff0 	cmp.w	r8, #480	; 0x1e0
 800182c:	dd04      	ble.n	8001838 <MD_FillCircle+0x214>
 800182e:	9b07      	ldr	r3, [sp, #28]
 8001830:	eb04 0c03 	add.w	ip, r4, r3
 8001834:	fa1f fc8c 	uxth.w	ip, ip
    LCD_CMD = cmd;
 8001838:	f04f 0302 	mov.w	r3, #2
 800183c:	f8ab 3000 	strh.w	r3, [fp]
    LCD_DATA = data;
 8001840:	f8a1 e000 	strh.w	lr, [r1]
    LCD_CMD = cmd;
 8001844:	f04f 0303 	mov.w	r3, #3
    MD_SetWindow(x, y, x, y + len - 1);
 8001848:	f10e 3eff 	add.w	lr, lr, #4294967295
    LCD_CMD = cmd;
 800184c:	f8ab 3000 	strh.w	r3, [fp]
    MD_SetWindow(x, y, x, y + len - 1);
 8001850:	44e6      	add	lr, ip
    LCD_CMD = cmd;
 8001852:	f04f 0306 	mov.w	r3, #6
    LCD_DATA = data;
 8001856:	800f      	strh	r7, [r1, #0]
    MD_SetWindow(x, y, x, y + len - 1);
 8001858:	fa1f fe8e 	uxth.w	lr, lr
    LCD_CMD = cmd;
 800185c:	f8ab 3000 	strh.w	r3, [fp]
 8001860:	f04f 0307 	mov.w	r3, #7
    LCD_DATA = data;
 8001864:	f8a1 e000 	strh.w	lr, [r1]
    LCD_CMD = cmd;
 8001868:	f8ab 3000 	strh.w	r3, [fp]
    LCD_CMD = cmd;
 800186c:	f04f 030f 	mov.w	r3, #15
    LCD_DATA = data;
 8001870:	800f      	strh	r7, [r1, #0]
    LCD_CMD = cmd;
 8001872:	f8ab 3000 	strh.w	r3, [fp]
 8001876:	9b05      	ldr	r3, [sp, #20]
 8001878:	f04f 0e00 	mov.w	lr, #0
    for (uint16_t i = 0; i < len; i++)
 800187c:	f10e 0e01 	add.w	lr, lr, #1
 8001880:	fa1f f88e 	uxth.w	r8, lr
 8001884:	45c4      	cmp	ip, r8
        LCD_DATA = color;
 8001886:	800b      	strh	r3, [r1, #0]
    for (uint16_t i = 0; i < len; i++)
 8001888:	d8f8      	bhi.n	800187c <MD_FillCircle+0x258>
 800188a:	9305      	str	r3, [sp, #20]
            MD_DrawVLine(x0 - y, y0 - x, 2 * x + 1 + delta, color);
 800188c:	9b03      	ldr	r3, [sp, #12]
 800188e:	1b1c      	subs	r4, r3, r4
 8001890:	b2a4      	uxth	r4, r4
    if (x >= LCD_WIDTH || y >= LCD_HEIGHT || len == 0) return;
 8001892:	f5b4 7f48 	cmp.w	r4, #800	; 0x320
 8001896:	d234      	bcs.n	8001902 <MD_FillCircle+0x2de>
 8001898:	f5b0 7ff0 	cmp.w	r0, #480	; 0x1e0
 800189c:	d231      	bcs.n	8001902 <MD_FillCircle+0x2de>
    if (y + len > LCD_HEIGHT) len = LCD_HEIGHT - y;
 800189e:	eb00 0c05 	add.w	ip, r0, r5
 80018a2:	f5bc 7ff0 	cmp.w	ip, #480	; 0x1e0
 80018a6:	bfc8      	it	gt
 80018a8:	f5c0 7cf0 	rsbgt	ip, r0, #480	; 0x1e0
    LCD_CMD = cmd;
 80018ac:	f04f 0302 	mov.w	r3, #2
 80018b0:	f8ab 3000 	strh.w	r3, [fp]
 80018b4:	bfc8      	it	gt
 80018b6:	fa1f fc8c 	uxthgt.w	ip, ip
 80018ba:	f04f 0303 	mov.w	r3, #3
 80018be:	bfd8      	it	le
 80018c0:	46ac      	movle	ip, r5
    LCD_DATA = data;
 80018c2:	8008      	strh	r0, [r1, #0]
    MD_SetWindow(x, y, x, y + len - 1);
 80018c4:	eb0c 0e09 	add.w	lr, ip, r9
    LCD_CMD = cmd;
 80018c8:	f8ab 3000 	strh.w	r3, [fp]
 80018cc:	f04f 0306 	mov.w	r3, #6
    LCD_DATA = data;
 80018d0:	800c      	strh	r4, [r1, #0]
    MD_SetWindow(x, y, x, y + len - 1);
 80018d2:	fa1f fe8e 	uxth.w	lr, lr
    LCD_CMD = cmd;
 80018d6:	f8ab 3000 	strh.w	r3, [fp]
 80018da:	f04f 0307 	mov.w	r3, #7
    LCD_DATA = data;
 80018de:	f8a1 e000 	strh.w	lr, [r1]
    LCD_CMD = cmd;
 80018e2:	f8ab 3000 	strh.w	r3, [fp]
    LCD_CMD = cmd;
 80018e6:	f04f 030f 	mov.w	r3, #15
    LCD_DATA = data;
 80018ea:	800c      	strh	r4, [r1, #0]
    LCD_CMD = cmd;
 80018ec:	f8ab 3000 	strh.w	r3, [fp]
 80018f0:	9b05      	ldr	r3, [sp, #20]
 80018f2:	2400      	movs	r4, #0
    for (uint16_t i = 0; i < len; i++)
 80018f4:	3401      	adds	r4, #1
 80018f6:	fa1f fe84 	uxth.w	lr, r4
 80018fa:	45e6      	cmp	lr, ip
        LCD_DATA = color;
 80018fc:	800b      	strh	r3, [r1, #0]
    for (uint16_t i = 0; i < len; i++)
 80018fe:	d3f9      	bcc.n	80018f4 <MD_FillCircle+0x2d0>
 8001900:	9305      	str	r3, [sp, #20]
    while (x < y)
 8001902:	9b02      	ldr	r3, [sp, #8]
 8001904:	1a1c      	subs	r4, r3, r0
 8001906:	9b01      	ldr	r3, [sp, #4]
 8001908:	b224      	sxth	r4, r4
 800190a:	3502      	adds	r5, #2
 800190c:	3f01      	subs	r7, #1
 800190e:	3601      	adds	r6, #1
 8001910:	42a3      	cmp	r3, r4
 8001912:	b2ad      	uxth	r5, r5
 8001914:	fa1f f089 	uxth.w	r0, r9
 8001918:	b2bf      	uxth	r7, r7
 800191a:	b2b6      	uxth	r6, r6
 800191c:	f73f aed8 	bgt.w	80016d0 <MD_FillCircle+0xac>
    MD_FillCircleHelper(x0, y0, r, 3, 0, color);
}
 8001920:	b009      	add	sp, #36	; 0x24
 8001922:	e8bd 8ff0 	ldmia.w	sp!, {r4, r5, r6, r7, r8, r9, sl, fp, pc}
            y--;
 8001926:	f8bd 4004 	ldrh.w	r4, [sp, #4]
            f += ddF_y;
 800192a:	b292      	uxth	r2, r2
 800192c:	e6e2      	b.n	80016f4 <MD_FillCircle+0xd0>
 800192e:	f100 39ff 	add.w	r9, r0, #4294967295
 8001932:	e771      	b.n	8001818 <MD_FillCircle+0x1f4>
 8001934:	60080000 	.word	0x60080000

08001938 <MD_FillTriangle>:

/* ================================================================
 * Треугольник (заливка)
 * ================================================================ */
void MD_FillTriangle(int16_t x0, int16_t y0, int16_t x1, int16_t y1, int16_t x2, int16_t y2, uint16_t color)
{
 8001938:	e92d 4ff0 	stmdb	sp!, {r4, r5, r6, r7, r8, r9, sl, fp, lr}
 800193c:	b089      	sub	sp, #36	; 0x24
 800193e:	461e      	mov	r6, r3
 8001940:	f9bd 504c 	ldrsh.w	r5, [sp, #76]	; 0x4c
 8001944:	9306      	str	r3, [sp, #24]
    int16_t a, b, y, last;

    /* Сортируем вершины по Y */
    if (y0 > y1) { int16_t t = y0; y0 = y1; y1 = t; t = x0; x0 = x1; x1 = t; }
 8001946:	42b1      	cmp	r1, r6
{
 8001948:	f9bd 3048 	ldrsh.w	r3, [sp, #72]	; 0x48
 800194c:	f8bd 4050 	ldrh.w	r4, [sp, #80]	; 0x50
 8001950:	9500      	str	r5, [sp, #0]
    if (y0 > y1) { int16_t t = y0; y0 = y1; y1 = t; t = x0; x0 = x1; x1 = t; }
 8001952:	f340 80ff 	ble.w	8001b54 <MD_FillTriangle+0x21c>
    if (y1 > y2) { int16_t t = y1; y1 = y2; y2 = t; t = x1; x1 = x2; x2 = t; }
 8001956:	42a9      	cmp	r1, r5
 8001958:	dd0a      	ble.n	8001970 <MD_FillTriangle+0x38>
    if (y0 > y1) { int16_t t = y0; y0 = y1; y1 = t; t = x0; x0 = x1; x1 = t; }
 800195a:	9d06      	ldr	r5, [sp, #24]
 800195c:	9f00      	ldr	r7, [sp, #0]
 800195e:	42af      	cmp	r7, r5
 8001960:	460e      	mov	r6, r1
 8001962:	4605      	mov	r5, r0
 8001964:	f2c0 8108 	blt.w	8001b78 <MD_FillTriangle+0x240>
 8001968:	4618      	mov	r0, r3
 800196a:	4639      	mov	r1, r7
 800196c:	9600      	str	r6, [sp, #0]
 800196e:	462b      	mov	r3, r5
 8001970:	460e      	mov	r6, r1
 8001972:	4605      	mov	r5, r0
 8001974:	9906      	ldr	r1, [sp, #24]
 8001976:	9606      	str	r6, [sp, #24]
 8001978:	4610      	mov	r0, r2
 800197a:	462a      	mov	r2, r5

    if (y0 == y2)
 800197c:	9d00      	ldr	r5, [sp, #0]
 800197e:	42a9      	cmp	r1, r5
 8001980:	f000 80ff 	beq.w	8001b82 <MD_FillTriangle+0x24a>
        else if (x2 > b) b = x2;
        MD_DrawHLine(a, y0, b - a + 1, color);
        return;
    }

    int16_t dx01 = x1 - x0, dy01 = y1 - y0;
 8001984:	f8dd e018 	ldr.w	lr, [sp, #24]
    int16_t dx02 = x2 - x0, dy02 = y2 - y0;
 8001988:	f8dd c000 	ldr.w	ip, [sp]
    int16_t dx01 = x1 - x0, dy01 = y1 - y0;
 800198c:	b297      	uxth	r7, r2
 800198e:	b280      	uxth	r0, r0
 8001990:	1a3e      	subs	r6, r7, r0
 8001992:	fa1f f98e 	uxth.w	r9, lr
    int16_t dx02 = x2 - x0, dy02 = y2 - y0;
 8001996:	b29a      	uxth	r2, r3
    int16_t dx01 = x1 - x0, dy01 = y1 - y0;
 8001998:	b28d      	uxth	r5, r1
    int16_t dx02 = x2 - x0, dy02 = y2 - y0;
 800199a:	fa1f f38c 	uxth.w	r3, ip
    int16_t dx01 = x1 - x0, dy01 = y1 - y0;
 800199e:	b236      	sxth	r6, r6
 80019a0:	9604      	str	r6, [sp, #16]
 80019a2:	eba9 0605 	sub.w	r6, r9, r5
    int16_t dx02 = x2 - x0, dy02 = y2 - y0;
 80019a6:	1b5d      	subs	r5, r3, r5
    int16_t dx12 = x2 - x1, dy12 = y2 - y1;
 80019a8:	eba3 0309 	sub.w	r3, r3, r9
    int32_t sa = 0, sb = 0;

    if (y1 == y2) last = y1;
 80019ac:	45e6      	cmp	lr, ip
    int16_t dx12 = x2 - x1, dy12 = y2 - y1;
 80019ae:	b21b      	sxth	r3, r3
    int16_t dx02 = x2 - x0, dy02 = y2 - y0;
 80019b0:	eba2 0800 	sub.w	r8, r2, r0
    int16_t dx12 = x2 - x1, dy12 = y2 - y1;
 80019b4:	eba2 0207 	sub.w	r2, r2, r7
    else last = y1 - 1;
 80019b8:	bf18      	it	ne
 80019ba:	f109 39ff 	addne.w	r9, r9, #4294967295
    int16_t dx12 = x2 - x1, dy12 = y2 - y1;
 80019be:	9305      	str	r3, [sp, #20]
 80019c0:	b213      	sxth	r3, r2
 80019c2:	9302      	str	r3, [sp, #8]
    if (y1 == y2) last = y1;
 80019c4:	4673      	mov	r3, lr
    else last = y1 - 1;
 80019c6:	bf14      	ite	ne
 80019c8:	fa0f f389 	sxthne.w	r3, r9
 80019cc:	4673      	moveq	r3, lr
    int16_t dx01 = x1 - x0, dy01 = y1 - y0;
 80019ce:	b236      	sxth	r6, r6

    for (y = y0; y <= last; y++)
 80019d0:	428b      	cmp	r3, r1
    int16_t dx01 = x1 - x0, dy01 = y1 - y0;
 80019d2:	9703      	str	r7, [sp, #12]
 80019d4:	46b3      	mov	fp, r6
    int16_t dx02 = x2 - x0, dy02 = y2 - y0;
 80019d6:	fa0f fa85 	sxth.w	sl, r5
 80019da:	fa0f f888 	sxth.w	r8, r8
    else last = y1 - 1;
 80019de:	9301      	str	r3, [sp, #4]
    for (y = y0; y <= last; y++)
 80019e0:	f2c0 810a 	blt.w	8001bf8 <MD_FillTriangle+0x2c0>
    int32_t sa = 0, sb = 0;
 80019e4:	2600      	movs	r6, #0
    LCD_DATA = data;
 80019e6:	4d88      	ldr	r5, [pc, #544]	; (8001c08 <MD_FillTriangle+0x2d0>)
    LCD_CMD = cmd;
 80019e8:	9107      	str	r1, [sp, #28]
        if (a > b) { int16_t t = a; a = b; b = t; }
        MD_DrawHLine(a, y, b - a + 1, color);
    }

    sa = dx12 * (y - y1);
    sb = dx02 * (y - y0);
 80019ea:	460b      	mov	r3, r1
    int32_t sa = 0, sb = 0;
 80019ec:	4637      	mov	r7, r6
    LCD_CMD = cmd;
 80019ee:	f04f 49c0 	mov.w	r9, #1610612736	; 0x60000000
    LCD_CMD = cmd;
 80019f2:	46de      	mov	lr, fp
        sa += dx01;
 80019f4:	9a04      	ldr	r2, [sp, #16]
        a = x0 + sa / dy01;
 80019f6:	fb97 fcfe 	sdiv	ip, r7, lr
        sa += dx01;
 80019fa:	4417      	add	r7, r2
        a = x0 + sa / dy01;
 80019fc:	4484      	add	ip, r0
        b = x0 + sb / dy02;
 80019fe:	fb96 f2fa 	sdiv	r2, r6, sl
 8001a02:	4402      	add	r2, r0
        if (a > b) { int16_t t = a; a = b; b = t; }
 8001a04:	fa0f fb8c 	sxth.w	fp, ip
 8001a08:	b211      	sxth	r1, r2
 8001a0a:	458b      	cmp	fp, r1
        sb += dx02;
 8001a0c:	4446      	add	r6, r8
        a = x0 + sa / dy01;
 8001a0e:	fa1f fc8c 	uxth.w	ip, ip
        b = x0 + sb / dy02;
 8001a12:	b292      	uxth	r2, r2
        if (a > b) { int16_t t = a; a = b; b = t; }
 8001a14:	dc02      	bgt.n	8001a1c <MD_FillTriangle+0xe4>
 8001a16:	4611      	mov	r1, r2
 8001a18:	4662      	mov	r2, ip
 8001a1a:	468c      	mov	ip, r1
    if (x >= LCD_WIDTH || y >= LCD_HEIGHT || len == 0) return;
 8001a1c:	f5b2 7f48 	cmp.w	r2, #800	; 0x320
 8001a20:	b29b      	uxth	r3, r3
 8001a22:	d231      	bcs.n	8001a88 <MD_FillTriangle+0x150>
 8001a24:	f5b3 7ff0 	cmp.w	r3, #480	; 0x1e0
 8001a28:	d22e      	bcs.n	8001a88 <MD_FillTriangle+0x150>
        MD_DrawHLine(a, y, b - a + 1, color);
 8001a2a:	f10c 0101 	add.w	r1, ip, #1
 8001a2e:	1a89      	subs	r1, r1, r2
 8001a30:	b289      	uxth	r1, r1
    if (x >= LCD_WIDTH || y >= LCD_HEIGHT || len == 0) return;
 8001a32:	b349      	cbz	r1, 8001a88 <MD_FillTriangle+0x150>
    if (x + len > LCD_WIDTH) len = LCD_WIDTH - x;
 8001a34:	eb02 0b01 	add.w	fp, r2, r1
 8001a38:	f5bb 7f48 	cmp.w	fp, #800	; 0x320
 8001a3c:	dd04      	ble.n	8001a48 <MD_FillTriangle+0x110>
 8001a3e:	f5c2 7148 	rsb	r1, r2, #800	; 0x320
 8001a42:	b289      	uxth	r1, r1
 8001a44:	f240 3c1f 	movw	ip, #799	; 0x31f
    LCD_CMD = cmd;
 8001a48:	f04f 0b02 	mov.w	fp, #2
 8001a4c:	f8a9 b000 	strh.w	fp, [r9]
 8001a50:	f04f 0b03 	mov.w	fp, #3
    LCD_DATA = data;
 8001a54:	802b      	strh	r3, [r5, #0]
    LCD_CMD = cmd;
 8001a56:	f8a9 b000 	strh.w	fp, [r9]
    LCD_DATA = data;
 8001a5a:	802a      	strh	r2, [r5, #0]
    LCD_CMD = cmd;
 8001a5c:	f04f 0206 	mov.w	r2, #6
 8001a60:	f8a9 2000 	strh.w	r2, [r9]
 8001a64:	f04f 0207 	mov.w	r2, #7
    LCD_DATA = data;
 8001a68:	802b      	strh	r3, [r5, #0]
    LCD_CMD = cmd;
 8001a6a:	f8a9 2000 	strh.w	r2, [r9]
    LCD_CMD = cmd;
 8001a6e:	f04f 020f 	mov.w	r2, #15
    LCD_DATA = data;
 8001a72:	f8a5 c000 	strh.w	ip, [r5]
    LCD_CMD = cmd;
 8001a76:	f8a9 2000 	strh.w	r2, [r9]
 8001a7a:	2200      	movs	r2, #0
    for (uint16_t i = 0; i < len; i++)
 8001a7c:	3201      	adds	r2, #1
 8001a7e:	fa1f fc82 	uxth.w	ip, r2
 8001a82:	4561      	cmp	r1, ip
        LCD_DATA = color;
 8001a84:	802c      	strh	r4, [r5, #0]
    for (uint16_t i = 0; i < len; i++)
 8001a86:	d8f9      	bhi.n	8001a7c <MD_FillTriangle+0x144>
    for (y = y0; y <= last; y++)
 8001a88:	9a01      	ldr	r2, [sp, #4]
 8001a8a:	3301      	adds	r3, #1
 8001a8c:	b21b      	sxth	r3, r3
 8001a8e:	429a      	cmp	r2, r3
 8001a90:	dab0      	bge.n	80019f4 <MD_FillTriangle+0xbc>
 8001a92:	9907      	ldr	r1, [sp, #28]
    sa = dx12 * (y - y1);
 8001a94:	9a06      	ldr	r2, [sp, #24]
 8001a96:	eba3 0c02 	sub.w	ip, r3, r2
 8001a9a:	9a02      	ldr	r2, [sp, #8]
 8001a9c:	fb02 fc0c 	mul.w	ip, r2, ip
    for (; y <= y2; y++)
 8001aa0:	9a00      	ldr	r2, [sp, #0]
    sb = dx02 * (y - y0);
 8001aa2:	1a59      	subs	r1, r3, r1
    for (; y <= y2; y++)
 8001aa4:	429a      	cmp	r2, r3
    sb = dx02 * (y - y0);
 8001aa6:	fb08 f101 	mul.w	r1, r8, r1
    for (; y <= y2; y++)
 8001aaa:	db50      	blt.n	8001b4e <MD_FillTriangle+0x216>
    LCD_DATA = data;
 8001aac:	4f56      	ldr	r7, [pc, #344]	; (8001c08 <MD_FillTriangle+0x2d0>)
    LCD_CMD = cmd;
 8001aae:	f04f 4ec0 	mov.w	lr, #1610612736	; 0x60000000
    LCD_CMD = cmd;
 8001ab2:	f04f 0b0f 	mov.w	fp, #15
 8001ab6:	461d      	mov	r5, r3
    {
        a = x1 + sa / dy12;
 8001ab8:	9b05      	ldr	r3, [sp, #20]
 8001aba:	fb9c f6f3 	sdiv	r6, ip, r3
 8001abe:	9b03      	ldr	r3, [sp, #12]
        b = x0 + sb / dy02;
 8001ac0:	fb91 f2fa 	sdiv	r2, r1, sl
        a = x1 + sa / dy12;
 8001ac4:	441e      	add	r6, r3
        sa += dx12;
 8001ac6:	9b02      	ldr	r3, [sp, #8]
        b = x0 + sb / dy02;
 8001ac8:	4402      	add	r2, r0
        sb += dx02;
        if (a > b) { int16_t t = a; a = b; b = t; }
 8001aca:	fa0f f986 	sxth.w	r9, r6
        sa += dx12;
 8001ace:	449c      	add	ip, r3
        if (a > b) { int16_t t = a; a = b; b = t; }
 8001ad0:	b213      	sxth	r3, r2
 8001ad2:	4599      	cmp	r9, r3
        sb += dx02;
 8001ad4:	4441      	add	r1, r8
        a = x1 + sa / dy12;
 8001ad6:	b2b6      	uxth	r6, r6
        b = x0 + sb / dy02;
 8001ad8:	b292      	uxth	r2, r2
        if (a > b) { int16_t t = a; a = b; b = t; }
 8001ada:	dc02      	bgt.n	8001ae2 <MD_FillTriangle+0x1aa>
 8001adc:	4613      	mov	r3, r2
 8001ade:	4632      	mov	r2, r6
 8001ae0:	461e      	mov	r6, r3
    if (x >= LCD_WIDTH || y >= LCD_HEIGHT || len == 0) return;
 8001ae2:	f5b2 7f48 	cmp.w	r2, #800	; 0x320
 8001ae6:	b2ad      	uxth	r5, r5
 8001ae8:	d22c      	bcs.n	8001b44 <MD_FillTriangle+0x20c>
 8001aea:	f5b5 7ff0 	cmp.w	r5, #480	; 0x1e0
 8001aee:	d229      	bcs.n	8001b44 <MD_FillTriangle+0x20c>
        MD_DrawHLine(a, y, b - a + 1, color);
 8001af0:	1c73      	adds	r3, r6, #1
 8001af2:	1a9b      	subs	r3, r3, r2
 8001af4:	b29b      	uxth	r3, r3
    if (x >= LCD_WIDTH || y >= LCD_HEIGHT || len == 0) return;
 8001af6:	b32b      	cbz	r3, 8001b44 <MD_FillTriangle+0x20c>
    if (x + len > LCD_WIDTH) len = LCD_WIDTH - x;
 8001af8:	eb02 0903 	add.w	r9, r2, r3
 8001afc:	f5b9 7f48 	cmp.w	r9, #800	; 0x320
 8001b00:	dd04      	ble.n	8001b0c <MD_FillTriangle+0x1d4>
 8001b02:	f5c2 7348 	rsb	r3, r2, #800	; 0x320
 8001b06:	b29b      	uxth	r3, r3
 8001b08:	f240 361f 	movw	r6, #799	; 0x31f
    LCD_CMD = cmd;
 8001b0c:	f04f 0902 	mov.w	r9, #2
 8001b10:	f8ae 9000 	strh.w	r9, [lr]
 8001b14:	f04f 0903 	mov.w	r9, #3
    LCD_DATA = data;
 8001b18:	803d      	strh	r5, [r7, #0]
    LCD_CMD = cmd;
 8001b1a:	f8ae 9000 	strh.w	r9, [lr]
    LCD_DATA = data;
 8001b1e:	803a      	strh	r2, [r7, #0]
    LCD_CMD = cmd;
 8001b20:	f04f 0206 	mov.w	r2, #6
 8001b24:	f8ae 2000 	strh.w	r2, [lr]
 8001b28:	f04f 0207 	mov.w	r2, #7
    LCD_DATA = data;
 8001b2c:	803d      	strh	r5, [r7, #0]
    LCD_CMD = cmd;
 8001b2e:	f8ae 2000 	strh.w	r2, [lr]
    LCD_DATA = data;
 8001b32:	803e      	strh	r6, [r7, #0]
    LCD_CMD = cmd;
 8001b34:	2200      	movs	r2, #0
 8001b36:	f8ae b000 	strh.w	fp, [lr]
    for (uint16_t i = 0; i < len; i++)
 8001b3a:	3201      	adds	r2, #1
 8001b3c:	b296      	uxth	r6, r2
 8001b3e:	429e      	cmp	r6, r3
        LCD_DATA = color;
 8001b40:	803c      	strh	r4, [r7, #0]
    for (uint16_t i = 0; i < len; i++)
 8001b42:	d3fa      	bcc.n	8001b3a <MD_FillTriangle+0x202>
    for (; y <= y2; y++)
 8001b44:	9b00      	ldr	r3, [sp, #0]
 8001b46:	3501      	adds	r5, #1
 8001b48:	b22d      	sxth	r5, r5
 8001b4a:	429d      	cmp	r5, r3
 8001b4c:	ddb4      	ble.n	8001ab8 <MD_FillTriangle+0x180>
    }
}
 8001b4e:	b009      	add	sp, #36	; 0x24
 8001b50:	e8bd 8ff0 	ldmia.w	sp!, {r4, r5, r6, r7, r8, r9, sl, fp, pc}
 8001b54:	4635      	mov	r5, r6
    if (y1 > y2) { int16_t t = y1; y1 = y2; y2 = t; t = x1; x1 = x2; x2 = t; }
 8001b56:	9e00      	ldr	r6, [sp, #0]
 8001b58:	42b5      	cmp	r5, r6
 8001b5a:	f77f af0f 	ble.w	800197c <MD_FillTriangle+0x44>
 8001b5e:	460e      	mov	r6, r1
 8001b60:	4605      	mov	r5, r0
 8001b62:	9906      	ldr	r1, [sp, #24]
 8001b64:	9606      	str	r6, [sp, #24]
 8001b66:	4610      	mov	r0, r2
    if (y0 > y1) { int16_t t = y0; y0 = y1; y1 = t; t = x0; x0 = x1; x1 = t; }
 8001b68:	9f00      	ldr	r7, [sp, #0]
    if (y1 > y2) { int16_t t = y1; y1 = y2; y2 = t; t = x1; x1 = x2; x2 = t; }
 8001b6a:	462a      	mov	r2, r5
    if (y0 > y1) { int16_t t = y0; y0 = y1; y1 = t; t = x0; x0 = x1; x1 = t; }
 8001b6c:	9d06      	ldr	r5, [sp, #24]
 8001b6e:	42af      	cmp	r7, r5
 8001b70:	460e      	mov	r6, r1
 8001b72:	4605      	mov	r5, r0
 8001b74:	f6bf aef8 	bge.w	8001968 <MD_FillTriangle+0x30>
 8001b78:	9900      	ldr	r1, [sp, #0]
 8001b7a:	9600      	str	r6, [sp, #0]
 8001b7c:	4618      	mov	r0, r3
 8001b7e:	462b      	mov	r3, r5
 8001b80:	e700      	b.n	8001984 <MD_FillTriangle+0x4c>
        if (x1 < a) a = x1;
 8001b82:	4290      	cmp	r0, r2
 8001b84:	dd02      	ble.n	8001b8c <MD_FillTriangle+0x254>
 8001b86:	4605      	mov	r5, r0
 8001b88:	4610      	mov	r0, r2
 8001b8a:	462a      	mov	r2, r5
        if (x2 < a) a = x2;
 8001b8c:	4298      	cmp	r0, r3
 8001b8e:	dd29      	ble.n	8001be4 <MD_FillTriangle+0x2ac>
        MD_DrawHLine(a, y0, b - a + 1, color);
 8001b90:	b29b      	uxth	r3, r3
    if (x >= LCD_WIDTH || y >= LCD_HEIGHT || len == 0) return;
 8001b92:	f5b3 7f48 	cmp.w	r3, #800	; 0x320
 8001b96:	d2da      	bcs.n	8001b4e <MD_FillTriangle+0x216>
        MD_DrawHLine(a, y0, b - a + 1, color);
 8001b98:	b289      	uxth	r1, r1
    if (x >= LCD_WIDTH || y >= LCD_HEIGHT || len == 0) return;
 8001b9a:	f5b1 7ff0 	cmp.w	r1, #480	; 0x1e0
 8001b9e:	d2d6      	bcs.n	8001b4e <MD_FillTriangle+0x216>
        MD_DrawHLine(a, y0, b - a + 1, color);
 8001ba0:	b292      	uxth	r2, r2
 8001ba2:	1c50      	adds	r0, r2, #1
 8001ba4:	1ac0      	subs	r0, r0, r3
 8001ba6:	b280      	uxth	r0, r0
    if (x >= LCD_WIDTH || y >= LCD_HEIGHT || len == 0) return;
 8001ba8:	2800      	cmp	r0, #0
 8001baa:	d0d0      	beq.n	8001b4e <MD_FillTriangle+0x216>
    if (x + len > LCD_WIDTH) len = LCD_WIDTH - x;
 8001bac:	181d      	adds	r5, r3, r0
 8001bae:	f5b5 7f48 	cmp.w	r5, #800	; 0x320
 8001bb2:	dc23      	bgt.n	8001bfc <MD_FillTriangle+0x2c4>
    LCD_CMD = cmd;
 8001bb4:	f04f 46c0 	mov.w	r6, #1610612736	; 0x60000000
    LCD_DATA = data;
 8001bb8:	4d13      	ldr	r5, [pc, #76]	; (8001c08 <MD_FillTriangle+0x2d0>)
    LCD_CMD = cmd;
 8001bba:	2702      	movs	r7, #2
 8001bbc:	8037      	strh	r7, [r6, #0]
 8001bbe:	2703      	movs	r7, #3
    LCD_DATA = data;
 8001bc0:	8029      	strh	r1, [r5, #0]
    LCD_CMD = cmd;
 8001bc2:	8037      	strh	r7, [r6, #0]
    LCD_DATA = data;
 8001bc4:	802b      	strh	r3, [r5, #0]
    LCD_CMD = cmd;
 8001bc6:	2306      	movs	r3, #6
 8001bc8:	8033      	strh	r3, [r6, #0]
 8001bca:	2307      	movs	r3, #7
    LCD_DATA = data;
 8001bcc:	8029      	strh	r1, [r5, #0]
    LCD_CMD = cmd;
 8001bce:	8033      	strh	r3, [r6, #0]
    LCD_CMD = cmd;
 8001bd0:	230f      	movs	r3, #15
    LCD_DATA = data;
 8001bd2:	802a      	strh	r2, [r5, #0]
    LCD_CMD = cmd;
 8001bd4:	8033      	strh	r3, [r6, #0]
 8001bd6:	2300      	movs	r3, #0
    for (uint16_t i = 0; i < len; i++)
 8001bd8:	3301      	adds	r3, #1
 8001bda:	b29a      	uxth	r2, r3
 8001bdc:	4290      	cmp	r0, r2
        LCD_DATA = color;
 8001bde:	802c      	strh	r4, [r5, #0]
    for (uint16_t i = 0; i < len; i++)
 8001be0:	d8fa      	bhi.n	8001bd8 <MD_FillTriangle+0x2a0>
 8001be2:	e7b4      	b.n	8001b4e <MD_FillTriangle+0x216>
        else if (x2 > b) b = x2;
 8001be4:	429a      	cmp	r2, r3
 8001be6:	bfb8      	it	lt
 8001be8:	461a      	movlt	r2, r3
 8001bea:	4603      	mov	r3, r0
        MD_DrawHLine(a, y0, b - a + 1, color);
 8001bec:	b29b      	uxth	r3, r3
    if (x >= LCD_WIDTH || y >= LCD_HEIGHT || len == 0) return;
 8001bee:	f5b3 7f48 	cmp.w	r3, #800	; 0x320
 8001bf2:	b212      	sxth	r2, r2
 8001bf4:	d3d0      	bcc.n	8001b98 <MD_FillTriangle+0x260>
 8001bf6:	e7aa      	b.n	8001b4e <MD_FillTriangle+0x216>
    sb = dx02 * (y - y0);
 8001bf8:	460b      	mov	r3, r1
 8001bfa:	e74b      	b.n	8001a94 <MD_FillTriangle+0x15c>
    if (x + len > LCD_WIDTH) len = LCD_WIDTH - x;
 8001bfc:	f5c3 7048 	rsb	r0, r3, #800	; 0x320
 8001c00:	b280      	uxth	r0, r0
 8001c02:	f240 321f 	movw	r2, #799	; 0x31f
 8001c06:	e7d5      	b.n	8001bb4 <MD_FillTriangle+0x27c>
 8001c08:	60080000 	.word	0x60080000

08001c0c <MD_FillRoundRect>:

/* ================================================================
 * Прямоугольник со скруглёнными углами (заливка)
 * ================================================================ */
void MD_FillRoundRect(uint16_t x, uint16_t y, uint16_t w, uint16_t h, uint16_t r, uint16_t color)
{
 8001c0c:	e92d 4ff0 	stmdb	sp!, {r4, r5, r6, r7, r8, r9, sl, fp, lr}
 8001c10:	b08f      	sub	sp, #60	; 0x3c
 8001c12:	4682      	mov	sl, r0
 8001c14:	f8bd 4064 	ldrh.w	r4, [sp, #100]	; 0x64
 8001c18:	f8bd 0060 	ldrh.w	r0, [sp, #96]	; 0x60
    if (w == 0 || h == 0) return;
 8001c1c:	b10a      	cbz	r2, 8001c22 <MD_FillRoundRect+0x16>
 8001c1e:	461e      	mov	r6, r3
 8001c20:	b913      	cbnz	r3, 8001c28 <MD_FillRoundRect+0x1c>

    MD_FillRect(x + r, y, w - 2 * r, h, color);

    MD_FillCircleHelper(x + w - r - 1, y + r, r, 1, h - 2 * r - 1, color);
    MD_FillCircleHelper(x + r, y + r, r, 2, h - 2 * r - 1, color);
}
 8001c22:	b00f      	add	sp, #60	; 0x3c
 8001c24:	e8bd 8ff0 	ldmia.w	sp!, {r4, r5, r6, r7, r8, r9, sl, fp, pc}
    if (r > h / 2) r = h / 2;
 8001c28:	085d      	lsrs	r5, r3, #1
 8001c2a:	4285      	cmp	r5, r0
 8001c2c:	bf28      	it	cs
 8001c2e:	4605      	movcs	r5, r0
 8001c30:	4617      	mov	r7, r2
 8001c32:	0852      	lsrs	r2, r2, #1
 8001c34:	4295      	cmp	r5, r2
 8001c36:	bf28      	it	cs
 8001c38:	4615      	movcs	r5, r2
    MD_FillRect(x + r, y, w - 2 * r, h, color);
 8001c3a:	eb05 020a 	add.w	r2, r5, sl
 8001c3e:	ea4f 0845 	mov.w	r8, r5, lsl #1
 8001c42:	fa1f f888 	uxth.w	r8, r8
 8001c46:	b292      	uxth	r2, r2
    MD_FillCircleHelper(x + w - r - 1, y + r, r, 1, h - 2 * r - 1, color);
 8001c48:	f10a 3aff 	add.w	sl, sl, #4294967295
 8001c4c:	4689      	mov	r9, r1
    MD_FillRect(x + r, y, w - 2 * r, h, color);
 8001c4e:	4610      	mov	r0, r2
 8001c50:	9205      	str	r2, [sp, #20]
    MD_FillCircleHelper(x + w - r - 1, y + r, r, 1, h - 2 * r - 1, color);
 8001c52:	3e01      	subs	r6, #1
    MD_FillRect(x + r, y, w - 2 * r, h, color);
 8001c54:	eba7 0208 	sub.w	r2, r7, r8
    MD_FillCircleHelper(x + w - r - 1, y + r, r, 1, h - 2 * r - 1, color);
 8001c58:	4457      	add	r7, sl
    MD_FillRect(x + r, y, w - 2 * r, h, color);
 8001c5a:	b292      	uxth	r2, r2
    MD_FillCircleHelper(x + w - r - 1, y + r, r, 1, h - 2 * r - 1, color);
 8001c5c:	1b7f      	subs	r7, r7, r5
 8001c5e:	eba6 0608 	sub.w	r6, r6, r8
    MD_FillRect(x + r, y, w - 2 * r, h, color);
 8001c62:	9400      	str	r4, [sp, #0]
    MD_FillCircleHelper(x + w - r - 1, y + r, r, 1, h - 2 * r - 1, color);
 8001c64:	44a9      	add	r9, r5
    int16_t ddF_y = -2 * r;
 8001c66:	f1c8 0800 	rsb	r8, r8, #0
    MD_FillRect(x + r, y, w - 2 * r, h, color);
 8001c6a:	f7ff fb25 	bl	80012b8 <MD_FillRect>
    MD_FillCircleHelper(x + w - r - 1, y + r, r, 1, h - 2 * r - 1, color);
 8001c6e:	b2b8      	uxth	r0, r7
    int16_t ddF_y = -2 * r;
 8001c70:	fa0f f188 	sxth.w	r1, r8
    MD_FillCircleHelper(x + w - r - 1, y + r, r, 1, h - 2 * r - 1, color);
 8001c74:	fa1f f789 	uxth.w	r7, r9
    int16_t f = 1 - r;
 8001c78:	f1c5 0201 	rsb	r2, r5, #1
    MD_FillCircleHelper(x + w - r - 1, y + r, r, 1, h - 2 * r - 1, color);
 8001c7c:	9706      	str	r7, [sp, #24]
 8001c7e:	b2b6      	uxth	r6, r6
    int16_t ddF_y = -2 * r;
 8001c80:	9104      	str	r1, [sp, #16]
    int16_t f = 1 - r;
 8001c82:	b212      	sxth	r2, r2
    MD_FillCircleHelper(x + w - r - 1, y + r, r, 1, h - 2 * r - 1, color);
 8001c84:	fa0f fa85 	sxth.w	sl, r5
    while (x < y)
 8001c88:	2d00      	cmp	r5, #0
 8001c8a:	d0ca      	beq.n	8001c22 <MD_FillRoundRect+0x16>
 8001c8c:	1e7b      	subs	r3, r7, #1
 8001c8e:	b29b      	uxth	r3, r3
 8001c90:	9309      	str	r3, [sp, #36]	; 0x24
 8001c92:	1cf3      	adds	r3, r6, #3
 8001c94:	3601      	adds	r6, #1
 8001c96:	b29d      	uxth	r5, r3
 8001c98:	b2b3      	uxth	r3, r6
 8001c9a:	e9cd 0307 	strd	r0, r3, [sp, #28]
    int16_t ddF_y = -2 * r;
 8001c9e:	910a      	str	r1, [sp, #40]	; 0x28
 8001ca0:	3001      	adds	r0, #1
    if (y + len > LCD_HEIGHT) len = LCD_HEIGHT - y;
 8001ca2:	f5c7 77f0 	rsb	r7, r7, #480	; 0x1e0
    LCD_DATA = data;
 8001ca6:	f8df 82d0 	ldr.w	r8, [pc, #720]	; 8001f78 <MD_FillRoundRect+0x36c>
    while (x < y)
 8001caa:	9e09      	ldr	r6, [sp, #36]	; 0x24
    if (y + len > LCD_HEIGHT) len = LCD_HEIGHT - y;
 8001cac:	f8dd c028 	ldr.w	ip, [sp, #40]	; 0x28
 8001cb0:	9503      	str	r5, [sp, #12]
 8001cb2:	e9cd 2a0b 	strd	r2, sl, [sp, #44]	; 0x2c
    while (x < y)
 8001cb6:	46d6      	mov	lr, sl
 8001cb8:	b280      	uxth	r0, r0
    if (y + len > LCD_HEIGHT) len = LCD_HEIGHT - y;
 8001cba:	f8dd a01c 	ldr.w	sl, [sp, #28]
 8001cbe:	970d      	str	r7, [sp, #52]	; 0x34
    int16_t f = 1 - r;
 8001cc0:	4613      	mov	r3, r2
    int16_t x = 0;
 8001cc2:	2100      	movs	r1, #0
    if (y + len > LCD_HEIGHT) len = LCD_HEIGHT - y;
 8001cc4:	9407      	str	r4, [sp, #28]
        if (f >= 0)
 8001cc6:	2b00      	cmp	r3, #0
 8001cc8:	f2c0 8147 	blt.w	8001f5a <MD_FillRoundRect+0x34e>
            ddF_y += 2;
 8001ccc:	f10c 0c02 	add.w	ip, ip, #2
            y--;
 8001cd0:	f10e 3eff 	add.w	lr, lr, #4294967295
            f += ddF_y;
 8001cd4:	fa13 f38c 	uxtah	r3, r3, ip
            y--;
 8001cd8:	fa1f f28e 	uxth.w	r2, lr
            ddF_y += 2;
 8001cdc:	fa0f fc8c 	sxth.w	ip, ip
            f += ddF_y;
 8001ce0:	b29b      	uxth	r3, r3
            y--;
 8001ce2:	fa0f fe8e 	sxth.w	lr, lr
        x++;
 8001ce6:	3101      	adds	r1, #1
 8001ce8:	b28f      	uxth	r7, r1
        ddF_x += 2;
 8001cea:	eb03 0347 	add.w	r3, r3, r7, lsl #1
        f += ddF_x;
 8001cee:	3301      	adds	r3, #1
    if (x >= LCD_WIDTH || y >= LCD_HEIGHT || len == 0) return;
 8001cf0:	f5b0 7f48 	cmp.w	r0, #800	; 0x320
 8001cf4:	b209      	sxth	r1, r1
        f += ddF_x;
 8001cf6:	b21b      	sxth	r3, r3
    if (x >= LCD_WIDTH || y >= LCD_HEIGHT || len == 0) return;
 8001cf8:	d23c      	bcs.n	8001d74 <MD_FillRoundRect+0x168>
            MD_DrawVLine(x0 + x, y0 - y, 2 * y + 1 + delta, color);
 8001cfa:	9f06      	ldr	r7, [sp, #24]
 8001cfc:	1abf      	subs	r7, r7, r2
 8001cfe:	b2bf      	uxth	r7, r7
    if (x >= LCD_WIDTH || y >= LCD_HEIGHT || len == 0) return;
 8001d00:	f5b7 7ff0 	cmp.w	r7, #480	; 0x1e0
 8001d04:	d236      	bcs.n	8001d74 <MD_FillRoundRect+0x168>
            MD_DrawVLine(x0 + x, y0 - y, 2 * y + 1 + delta, color);
 8001d06:	9c08      	ldr	r4, [sp, #32]
 8001d08:	eb04 0942 	add.w	r9, r4, r2, lsl #1
 8001d0c:	fa1f f989 	uxth.w	r9, r9
    if (x >= LCD_WIDTH || y >= LCD_HEIGHT || len == 0) return;
 8001d10:	f1b9 0f00 	cmp.w	r9, #0
 8001d14:	d02e      	beq.n	8001d74 <MD_FillRoundRect+0x168>
    if (y + len > LCD_HEIGHT) len = LCD_HEIGHT - y;
 8001d16:	eb07 0b09 	add.w	fp, r7, r9
 8001d1a:	f5bb 7ff0 	cmp.w	fp, #480	; 0x1e0
 8001d1e:	f300 8124 	bgt.w	8001f6a <MD_FillRoundRect+0x35e>
    LCD_CMD = cmd;
 8001d22:	f04f 44c0 	mov.w	r4, #1610612736	; 0x60000000
 8001d26:	f04f 0b02 	mov.w	fp, #2
 8001d2a:	f8a4 b000 	strh.w	fp, [r4]
    LCD_DATA = data;
 8001d2e:	f8a8 7000 	strh.w	r7, [r8]
    MD_SetWindow(x, y, x, y + len - 1);
 8001d32:	3f01      	subs	r7, #1
    LCD_CMD = cmd;
 8001d34:	f04f 0b03 	mov.w	fp, #3
    MD_SetWindow(x, y, x, y + len - 1);
 8001d38:	444f      	add	r7, r9
    LCD_CMD = cmd;
 8001d3a:	f8a4 b000 	strh.w	fp, [r4]
    MD_SetWindow(x, y, x, y + len - 1);
 8001d3e:	b2bf      	uxth	r7, r7
    LCD_CMD = cmd;
 8001d40:	f04f 0b06 	mov.w	fp, #6
    LCD_DATA = data;
 8001d44:	f8a8 0000 	strh.w	r0, [r8]
    LCD_CMD = cmd;
 8001d48:	f8a4 b000 	strh.w	fp, [r4]
    LCD_DATA = data;
 8001d4c:	f8a8 7000 	strh.w	r7, [r8]
    LCD_CMD = cmd;
 8001d50:	f04f 0707 	mov.w	r7, #7
 8001d54:	8027      	strh	r7, [r4, #0]
    LCD_CMD = cmd;
 8001d56:	f04f 070f 	mov.w	r7, #15
    LCD_DATA = data;
 8001d5a:	f8a8 0000 	strh.w	r0, [r8]
    LCD_CMD = cmd;
 8001d5e:	8027      	strh	r7, [r4, #0]
 8001d60:	9c07      	ldr	r4, [sp, #28]
 8001d62:	2700      	movs	r7, #0
    for (uint16_t i = 0; i < len; i++)
 8001d64:	3701      	adds	r7, #1
 8001d66:	fa1f fb87 	uxth.w	fp, r7
 8001d6a:	45cb      	cmp	fp, r9
        LCD_DATA = color;
 8001d6c:	f8a8 4000 	strh.w	r4, [r8]
    for (uint16_t i = 0; i < len; i++)
 8001d70:	d3f8      	bcc.n	8001d64 <MD_FillRoundRect+0x158>
 8001d72:	9407      	str	r4, [sp, #28]
            MD_DrawVLine(x0 + y, y0 - x, 2 * x + 1 + delta, color);
 8001d74:	4452      	add	r2, sl
 8001d76:	b292      	uxth	r2, r2
    if (x >= LCD_WIDTH || y >= LCD_HEIGHT || len == 0) return;
 8001d78:	f5b2 7f48 	cmp.w	r2, #800	; 0x320
 8001d7c:	f080 80eb 	bcs.w	8001f56 <MD_FillRoundRect+0x34a>
 8001d80:	f5b6 7ff0 	cmp.w	r6, #480	; 0x1e0
 8001d84:	f080 80e7 	bcs.w	8001f56 <MD_FillRoundRect+0x34a>
 8001d88:	2d00      	cmp	r5, #0
 8001d8a:	f000 80e4 	beq.w	8001f56 <MD_FillRoundRect+0x34a>
    if (y + len > LCD_HEIGHT) len = LCD_HEIGHT - y;
 8001d8e:	1977      	adds	r7, r6, r5
    LCD_CMD = cmd;
 8001d90:	f04f 44c0 	mov.w	r4, #1610612736	; 0x60000000
    if (y + len > LCD_HEIGHT) len = LCD_HEIGHT - y;
 8001d94:	f5b7 7ff0 	cmp.w	r7, #480	; 0x1e0
    LCD_CMD = cmd;
 8001d98:	f04f 0902 	mov.w	r9, #2
 8001d9c:	f8a4 9000 	strh.w	r9, [r4]
 8001da0:	bfc8      	it	gt
 8001da2:	f5c6 77f0 	rsbgt	r7, r6, #480	; 0x1e0
 8001da6:	f04f 0903 	mov.w	r9, #3
    LCD_DATA = data;
 8001daa:	f8a8 6000 	strh.w	r6, [r8]
 8001dae:	bfc8      	it	gt
 8001db0:	b2bf      	uxthgt	r7, r7
    LCD_CMD = cmd;
 8001db2:	f8a4 9000 	strh.w	r9, [r4]
 8001db6:	bfd8      	it	le
 8001db8:	462f      	movle	r7, r5
 8001dba:	f04f 0906 	mov.w	r9, #6
    MD_SetWindow(x, y, x, y + len - 1);
 8001dbe:	3e01      	subs	r6, #1
    LCD_DATA = data;
 8001dc0:	f8a8 2000 	strh.w	r2, [r8]
    LCD_CMD = cmd;
 8001dc4:	f8a4 9000 	strh.w	r9, [r4]
    MD_SetWindow(x, y, x, y + len - 1);
 8001dc8:	eb07 0906 	add.w	r9, r7, r6
 8001dcc:	fa1f f989 	uxth.w	r9, r9
    LCD_DATA = data;
 8001dd0:	f8a8 9000 	strh.w	r9, [r8]
    LCD_CMD = cmd;
 8001dd4:	f04f 0907 	mov.w	r9, #7
 8001dd8:	f8a4 9000 	strh.w	r9, [r4]
    LCD_DATA = data;
 8001ddc:	f8a8 2000 	strh.w	r2, [r8]
    LCD_CMD = cmd;
 8001de0:	f04f 020f 	mov.w	r2, #15
 8001de4:	8022      	strh	r2, [r4, #0]
 8001de6:	9c07      	ldr	r4, [sp, #28]
 8001de8:	2200      	movs	r2, #0
    for (uint16_t i = 0; i < len; i++)
 8001dea:	3201      	adds	r2, #1
 8001dec:	fa1f f982 	uxth.w	r9, r2
 8001df0:	45b9      	cmp	r9, r7
        LCD_DATA = color;
 8001df2:	f8a8 4000 	strh.w	r4, [r8]
    for (uint16_t i = 0; i < len; i++)
 8001df6:	d3f8      	bcc.n	8001dea <MD_FillRoundRect+0x1de>
 8001df8:	9407      	str	r4, [sp, #28]
    while (x < y)
 8001dfa:	3502      	adds	r5, #2
 8001dfc:	3001      	adds	r0, #1
 8001dfe:	4571      	cmp	r1, lr
 8001e00:	b2b6      	uxth	r6, r6
 8001e02:	b2ad      	uxth	r5, r5
 8001e04:	b280      	uxth	r0, r0
 8001e06:	f6ff af5e 	blt.w	8001cc6 <MD_FillRoundRect+0xba>
 8001e0a:	e9dd 2a0b 	ldrd	r2, sl, [sp, #44]	; 0x2c
 8001e0e:	9b05      	ldr	r3, [sp, #20]
    if (y + len > LCD_HEIGHT) len = LCD_HEIGHT - y;
 8001e10:	9806      	ldr	r0, [sp, #24]
    LCD_DATA = data;
 8001e12:	4e59      	ldr	r6, [pc, #356]	; (8001f78 <MD_FillRoundRect+0x36c>)
    if (y + len > LCD_HEIGHT) len = LCD_HEIGHT - y;
 8001e14:	9c09      	ldr	r4, [sp, #36]	; 0x24
 8001e16:	1e59      	subs	r1, r3, #1
 8001e18:	f5c0 70f0 	rsb	r0, r0, #480	; 0x1e0
        if (f >= 0)
 8001e1c:	2a00      	cmp	r2, #0
 8001e1e:	b289      	uxth	r1, r1
    while (x < y)
 8001e20:	f04f 0300 	mov.w	r3, #0
    LCD_CMD = cmd;
 8001e24:	f04f 4cc0 	mov.w	ip, #1610612736	; 0x60000000
 8001e28:	f04f 0802 	mov.w	r8, #2
 8001e2c:	f04f 0903 	mov.w	r9, #3
 8001e30:	f04f 0b07 	mov.w	fp, #7
    if (y + len > LCD_HEIGHT) len = LCD_HEIGHT - y;
 8001e34:	900a      	str	r0, [sp, #40]	; 0x28
        if (f >= 0)
 8001e36:	f2c0 8088 	blt.w	8001f4a <MD_FillRoundRect+0x33e>
            ddF_y += 2;
 8001e3a:	9804      	ldr	r0, [sp, #16]
 8001e3c:	3002      	adds	r0, #2
            y--;
 8001e3e:	f10a 3aff 	add.w	sl, sl, #4294967295
            f += ddF_y;
 8001e42:	fa12 f280 	uxtah	r2, r2, r0
            ddF_y += 2;
 8001e46:	b200      	sxth	r0, r0
 8001e48:	9004      	str	r0, [sp, #16]
            f += ddF_y;
 8001e4a:	b292      	uxth	r2, r2
            y--;
 8001e4c:	fa1f f08a 	uxth.w	r0, sl
 8001e50:	fa0f fa8a 	sxth.w	sl, sl
        x++;
 8001e54:	3301      	adds	r3, #1
 8001e56:	b29d      	uxth	r5, r3
        ddF_x += 2;
 8001e58:	eb02 0245 	add.w	r2, r2, r5, lsl #1
        f += ddF_x;
 8001e5c:	3201      	adds	r2, #1
    if (x >= LCD_WIDTH || y >= LCD_HEIGHT || len == 0) return;
 8001e5e:	f5b1 7f48 	cmp.w	r1, #800	; 0x320
 8001e62:	b21b      	sxth	r3, r3
        f += ddF_x;
 8001e64:	b212      	sxth	r2, r2
    if (x >= LCD_WIDTH || y >= LCD_HEIGHT || len == 0) return;
 8001e66:	d22f      	bcs.n	8001ec8 <MD_FillRoundRect+0x2bc>
            MD_DrawVLine(x0 - x, y0 - y, 2 * y + 1 + delta, color);
 8001e68:	9d06      	ldr	r5, [sp, #24]
 8001e6a:	1a2d      	subs	r5, r5, r0
 8001e6c:	b2ad      	uxth	r5, r5
    if (x >= LCD_WIDTH || y >= LCD_HEIGHT || len == 0) return;
 8001e6e:	f5b5 7ff0 	cmp.w	r5, #480	; 0x1e0
 8001e72:	d229      	bcs.n	8001ec8 <MD_FillRoundRect+0x2bc>
            MD_DrawVLine(x0 - x, y0 - y, 2 * y + 1 + delta, color);
 8001e74:	9f08      	ldr	r7, [sp, #32]
 8001e76:	eb07 0740 	add.w	r7, r7, r0, lsl #1
 8001e7a:	b2bf      	uxth	r7, r7
    if (x >= LCD_WIDTH || y >= LCD_HEIGHT || len == 0) return;
 8001e7c:	b327      	cbz	r7, 8001ec8 <MD_FillRoundRect+0x2bc>
    if (y + len > LCD_HEIGHT) len = LCD_HEIGHT - y;
 8001e7e:	eb05 0e07 	add.w	lr, r5, r7
 8001e82:	f5be 7ff0 	cmp.w	lr, #480	; 0x1e0
 8001e86:	dc6c      	bgt.n	8001f62 <MD_FillRoundRect+0x356>
    LCD_CMD = cmd;
 8001e88:	f8ac 8000 	strh.w	r8, [ip]
    LCD_DATA = data;
 8001e8c:	8035      	strh	r5, [r6, #0]
    MD_SetWindow(x, y, x, y + len - 1);
 8001e8e:	3d01      	subs	r5, #1
 8001e90:	443d      	add	r5, r7
 8001e92:	b2ad      	uxth	r5, r5
    LCD_CMD = cmd;
 8001e94:	f04f 0e06 	mov.w	lr, #6
 8001e98:	f8ac 9000 	strh.w	r9, [ip]
    LCD_DATA = data;
 8001e9c:	8031      	strh	r1, [r6, #0]
    LCD_CMD = cmd;
 8001e9e:	f8ac e000 	strh.w	lr, [ip]
    LCD_DATA = data;
 8001ea2:	8035      	strh	r5, [r6, #0]
    LCD_CMD = cmd;
 8001ea4:	f8dd e01c 	ldr.w	lr, [sp, #28]
    LCD_CMD = cmd;
 8001ea8:	f8ac b000 	strh.w	fp, [ip]
    LCD_CMD = cmd;
 8001eac:	f04f 050f 	mov.w	r5, #15
    LCD_DATA = data;
 8001eb0:	8031      	strh	r1, [r6, #0]
    LCD_CMD = cmd;
 8001eb2:	f8ac 5000 	strh.w	r5, [ip]
 8001eb6:	2500      	movs	r5, #0
 8001eb8:	9009      	str	r0, [sp, #36]	; 0x24
    for (uint16_t i = 0; i < len; i++)
 8001eba:	3501      	adds	r5, #1
 8001ebc:	b2a8      	uxth	r0, r5
 8001ebe:	4287      	cmp	r7, r0
        LCD_DATA = color;
 8001ec0:	f8a6 e000 	strh.w	lr, [r6]
    for (uint16_t i = 0; i < len; i++)
 8001ec4:	d8f9      	bhi.n	8001eba <MD_FillRoundRect+0x2ae>
 8001ec6:	9809      	ldr	r0, [sp, #36]	; 0x24
            MD_DrawVLine(x0 - y, y0 - x, 2 * x + 1 + delta, color);
 8001ec8:	9d05      	ldr	r5, [sp, #20]
 8001eca:	1a28      	subs	r0, r5, r0
 8001ecc:	b280      	uxth	r0, r0
    if (x >= LCD_WIDTH || y >= LCD_HEIGHT || len == 0) return;
 8001ece:	f5b0 7f48 	cmp.w	r0, #800	; 0x320
 8001ed2:	d23e      	bcs.n	8001f52 <MD_FillRoundRect+0x346>
 8001ed4:	f5b4 7ff0 	cmp.w	r4, #480	; 0x1e0
 8001ed8:	d23b      	bcs.n	8001f52 <MD_FillRoundRect+0x346>
 8001eda:	9d03      	ldr	r5, [sp, #12]
 8001edc:	2d00      	cmp	r5, #0
 8001ede:	d038      	beq.n	8001f52 <MD_FillRoundRect+0x346>
    if (y + len > LCD_HEIGHT) len = LCD_HEIGHT - y;
 8001ee0:	1965      	adds	r5, r4, r5
 8001ee2:	f5b5 7ff0 	cmp.w	r5, #480	; 0x1e0
 8001ee6:	bfd8      	it	le
 8001ee8:	9d03      	ldrle	r5, [sp, #12]
    LCD_CMD = cmd;
 8001eea:	f8ac 8000 	strh.w	r8, [ip]
 8001eee:	bfc8      	it	gt
 8001ef0:	f5c4 75f0 	rsbgt	r5, r4, #480	; 0x1e0
    LCD_DATA = data;
 8001ef4:	8034      	strh	r4, [r6, #0]
    LCD_CMD = cmd;
 8001ef6:	f04f 0706 	mov.w	r7, #6
 8001efa:	bfc8      	it	gt
 8001efc:	b2ad      	uxthgt	r5, r5
    MD_SetWindow(x, y, x, y + len - 1);
 8001efe:	3c01      	subs	r4, #1
    LCD_CMD = cmd;
 8001f00:	f8ac 9000 	strh.w	r9, [ip]
    LCD_DATA = data;
 8001f04:	8030      	strh	r0, [r6, #0]
    LCD_CMD = cmd;
 8001f06:	f8ac 7000 	strh.w	r7, [ip]
    MD_SetWindow(x, y, x, y + len - 1);
 8001f0a:	192f      	adds	r7, r5, r4
 8001f0c:	b2bf      	uxth	r7, r7
    LCD_DATA = data;
 8001f0e:	8037      	strh	r7, [r6, #0]
    LCD_CMD = cmd;
 8001f10:	f8dd e01c 	ldr.w	lr, [sp, #28]
    LCD_CMD = cmd;
 8001f14:	f8ac b000 	strh.w	fp, [ip]
    LCD_DATA = data;
 8001f18:	8030      	strh	r0, [r6, #0]
    LCD_CMD = cmd;
 8001f1a:	f04f 000f 	mov.w	r0, #15
 8001f1e:	f8ac 0000 	strh.w	r0, [ip]
 8001f22:	2000      	movs	r0, #0
    for (uint16_t i = 0; i < len; i++)
 8001f24:	3001      	adds	r0, #1
 8001f26:	b287      	uxth	r7, r0
 8001f28:	42af      	cmp	r7, r5
        LCD_DATA = color;
 8001f2a:	f8a6 e000 	strh.w	lr, [r6]
    for (uint16_t i = 0; i < len; i++)
 8001f2e:	d3f9      	bcc.n	8001f24 <MD_FillRoundRect+0x318>
    while (x < y)
 8001f30:	9803      	ldr	r0, [sp, #12]
 8001f32:	3002      	adds	r0, #2
 8001f34:	3901      	subs	r1, #1
 8001f36:	b280      	uxth	r0, r0
 8001f38:	459a      	cmp	sl, r3
 8001f3a:	b2a4      	uxth	r4, r4
 8001f3c:	9003      	str	r0, [sp, #12]
 8001f3e:	b289      	uxth	r1, r1
 8001f40:	f77f ae6f 	ble.w	8001c22 <MD_FillRoundRect+0x16>
        if (f >= 0)
 8001f44:	2a00      	cmp	r2, #0
 8001f46:	f6bf af78 	bge.w	8001e3a <MD_FillRoundRect+0x22e>
            f += ddF_y;
 8001f4a:	b292      	uxth	r2, r2
            y--;
 8001f4c:	fa1f f08a 	uxth.w	r0, sl
 8001f50:	e780      	b.n	8001e54 <MD_FillRoundRect+0x248>
 8001f52:	3c01      	subs	r4, #1
 8001f54:	e7ec      	b.n	8001f30 <MD_FillRoundRect+0x324>
 8001f56:	3e01      	subs	r6, #1
 8001f58:	e74f      	b.n	8001dfa <MD_FillRoundRect+0x1ee>
            f += ddF_y;
 8001f5a:	b29b      	uxth	r3, r3
            y--;
 8001f5c:	fa1f f28e 	uxth.w	r2, lr
 8001f60:	e6c1      	b.n	8001ce6 <MD_FillRoundRect+0xda>
    if (y + len > LCD_HEIGHT) len = LCD_HEIGHT - y;
 8001f62:	9f0a      	ldr	r7, [sp, #40]	; 0x28
 8001f64:	19c7      	adds	r7, r0, r7
 8001f66:	b2bf      	uxth	r7, r7
 8001f68:	e78e      	b.n	8001e88 <MD_FillRoundRect+0x27c>
 8001f6a:	9c0d      	ldr	r4, [sp, #52]	; 0x34
 8001f6c:	eb02 0904 	add.w	r9, r2, r4
 8001f70:	fa1f f989 	uxth.w	r9, r9
 8001f74:	e6d5      	b.n	8001d22 <MD_FillRoundRect+0x116>
 8001f76:	bf00      	nop
 8001f78:	60080000 	.word	0x60080000

08001f7c <HAL_MspInit>:
/* USER CODE END 0 */
/**
  * Initializes the Global MSP.
  */
void HAL_MspInit(void)
{
 8001f7c:	b082      	sub	sp, #8

  /* USER CODE BEGIN MspInit 0 */

  /* USER CODE END MspInit 0 */

  __HAL_RCC_SYSCFG_CLK_ENABLE();
 8001f7e:	4b0c      	ldr	r3, [pc, #48]	; (8001fb0 <HAL_MspInit+0x34>)
 8001f80:	2100      	movs	r1, #0
 8001f82:	9100      	str	r1, [sp, #0]
 8001f84:	6c5a      	ldr	r2, [r3, #68]	; 0x44
 8001f86:	f442 4280 	orr.w	r2, r2, #16384	; 0x4000
 8001f8a:	645a      	str	r2, [r3, #68]	; 0x44
 8001f8c:	6c5a      	ldr	r2, [r3, #68]	; 0x44
 8001f8e:	f402 4280 	and.w	r2, r2, #16384	; 0x4000
 8001f92:	9200      	str	r2, [sp, #0]
 8001f94:	9a00      	ldr	r2, [sp, #0]
  __HAL_RCC_PWR_CLK_ENABLE();
 8001f96:	9101      	str	r1, [sp, #4]
 8001f98:	6c1a      	ldr	r2, [r3, #64]	; 0x40
 8001f9a:	f042 5280 	orr.w	r2, r2, #268435456	; 0x10000000
 8001f9e:	641a      	str	r2, [r3, #64]	; 0x40
 8001fa0:	6c1b      	ldr	r3, [r3, #64]	; 0x40
 8001fa2:	f003 5380 	and.w	r3, r3, #268435456	; 0x10000000
 8001fa6:	9301      	str	r3, [sp, #4]
 8001fa8:	9b01      	ldr	r3, [sp, #4]
  /* System interrupt init*/

  /* USER CODE BEGIN MspInit 1 */

  /* USER CODE END MspInit 1 */
}
 8001faa:	b002      	add	sp, #8
 8001fac:	4770      	bx	lr
 8001fae:	bf00      	nop
 8001fb0:	40023800 	.word	0x40023800

08001fb4 <HAL_RTC_MspInit>:
  * This function configures the hardware resources used in this example
  * @param hrtc: RTC handle pointer
  * @retval None
  */
void HAL_RTC_MspInit(RTC_HandleTypeDef* hrtc)
{
 8001fb4:	b500      	push	{lr}
  RCC_PeriphCLKInitTypeDef PeriphClkInitStruct = {0};
  if(hrtc->Instance==RTC)
 8001fb6:	4a0f      	ldr	r2, [pc, #60]	; (8001ff4 <HAL_RTC_MspInit+0x40>)
 8001fb8:	6801      	ldr	r1, [r0, #0]
{
 8001fba:	b085      	sub	sp, #20
  RCC_PeriphCLKInitTypeDef PeriphClkInitStruct = {0};
 8001fbc:	2300      	movs	r3, #0
  if(hrtc->Instance==RTC)
 8001fbe:	4291      	cmp	r1, r2
  RCC_PeriphCLKInitTypeDef PeriphClkInitStruct = {0};
 8001fc0:	e9cd 3301 	strd	r3, r3, [sp, #4]
  if(hrtc->Instance==RTC)
 8001fc4:	d002      	beq.n	8001fcc <HAL_RTC_MspInit+0x18>

    /* USER CODE END RTC_MspInit 1 */

  }

}
 8001fc6:	b005      	add	sp, #20
 8001fc8:	f85d fb04 	ldr.w	pc, [sp], #4
    PeriphClkInitStruct.PeriphClockSelection = RCC_PERIPHCLK_RTC;
 8001fcc:	2202      	movs	r2, #2
    PeriphClkInitStruct.RTCClockSelection = RCC_RTCCLKSOURCE_LSE;
 8001fce:	f44f 7380 	mov.w	r3, #256	; 0x100
    if (HAL_RCCEx_PeriphCLKConfig(&PeriphClkInitStruct) != HAL_OK)
 8001fd2:	4668      	mov	r0, sp
    PeriphClkInitStruct.PeriphClockSelection = RCC_PERIPHCLK_RTC;
 8001fd4:	9200      	str	r2, [sp, #0]
    PeriphClkInitStruct.RTCClockSelection = RCC_RTCCLKSOURCE_LSE;
 8001fd6:	9303      	str	r3, [sp, #12]
    if (HAL_RCCEx_PeriphCLKConfig(&PeriphClkInitStruct) != HAL_OK)
 8001fd8:	f000 fd42 	bl	8002a60 <HAL_RCCEx_PeriphCLKConfig>
 8001fdc:	b930      	cbnz	r0, 8001fec <HAL_RTC_MspInit+0x38>
    __HAL_RCC_RTC_ENABLE();
 8001fde:	4b06      	ldr	r3, [pc, #24]	; (8001ff8 <HAL_RTC_MspInit+0x44>)
 8001fe0:	2201      	movs	r2, #1
 8001fe2:	f8c3 2e3c 	str.w	r2, [r3, #3644]	; 0xe3c
}
 8001fe6:	b005      	add	sp, #20
 8001fe8:	f85d fb04 	ldr.w	pc, [sp], #4
      Error_Handler();
 8001fec:	f7fe fe2e 	bl	8000c4c <Error_Handler>
 8001ff0:	e7f5      	b.n	8001fde <HAL_RTC_MspInit+0x2a>
 8001ff2:	bf00      	nop
 8001ff4:	40002800 	.word	0x40002800
 8001ff8:	42470000 	.word	0x42470000

08001ffc <HAL_SRAM_MspInit>:
  /* USER CODE BEGIN FSMC_MspInit 1 */

  /* USER CODE END FSMC_MspInit 1 */
}

void HAL_SRAM_MspInit(SRAM_HandleTypeDef* hsram){
 8001ffc:	b570      	push	{r4, r5, r6, lr}
  if (FSMC_Initialized) {
 8001ffe:	4b16      	ldr	r3, [pc, #88]	; (8002058 <HAL_SRAM_MspInit+0x5c>)
void HAL_SRAM_MspInit(SRAM_HandleTypeDef* hsram){
 8002000:	b088      	sub	sp, #32
  if (FSMC_Initialized) {
 8002002:	681c      	ldr	r4, [r3, #0]
  GPIO_InitTypeDef GPIO_InitStruct ={0};
 8002004:	2200      	movs	r2, #0
 8002006:	9204      	str	r2, [sp, #16]
  if (FSMC_Initialized) {
 8002008:	bb1c      	cbnz	r4, 8002052 <HAL_SRAM_MspInit+0x56>
  __HAL_RCC_FSMC_CLK_ENABLE();
 800200a:	4a14      	ldr	r2, [pc, #80]	; (800205c <HAL_SRAM_MspInit+0x60>)
 800200c:	9401      	str	r4, [sp, #4]
  FSMC_Initialized = 1;
 800200e:	2101      	movs	r1, #1
 8002010:	6019      	str	r1, [r3, #0]
  __HAL_RCC_FSMC_CLK_ENABLE();
 8002012:	6b93      	ldr	r3, [r2, #56]	; 0x38
  HAL_GPIO_Init(GPIOE, &GPIO_InitStruct);
 8002014:	4812      	ldr	r0, [pc, #72]	; (8002060 <HAL_SRAM_MspInit+0x64>)
  __HAL_RCC_FSMC_CLK_ENABLE();
 8002016:	430b      	orrs	r3, r1
 8002018:	6393      	str	r3, [r2, #56]	; 0x38
 800201a:	6b93      	ldr	r3, [r2, #56]	; 0x38
 800201c:	400b      	ands	r3, r1
 800201e:	9301      	str	r3, [sp, #4]
  GPIO_InitStruct.Speed = GPIO_SPEED_FREQ_VERY_HIGH;
 8002020:	2603      	movs	r6, #3
  GPIO_InitStruct.Alternate = GPIO_AF12_FSMC;
 8002022:	250c      	movs	r5, #12
  HAL_GPIO_Init(GPIOE, &GPIO_InitStruct);
 8002024:	a902      	add	r1, sp, #8
  GPIO_InitStruct.Pin = LCD_D4_Pin|LCD_D5_Pin|LCD_D6_Pin|LCD_D7_Pin
 8002026:	f64f 7280 	movw	r2, #65408	; 0xff80
 800202a:	2302      	movs	r3, #2
 800202c:	e9cd 2302 	strd	r2, r3, [sp, #8]
  GPIO_InitStruct.Alternate = GPIO_AF12_FSMC;
 8002030:	e9cd 6505 	strd	r6, r5, [sp, #20]
  __HAL_RCC_FSMC_CLK_ENABLE();
 8002034:	9b01      	ldr	r3, [sp, #4]
  HAL_GPIO_Init(GPIOE, &GPIO_InitStruct);
 8002036:	f000 f929 	bl	800228c <HAL_GPIO_Init>
  GPIO_InitStruct.Pin = LCD_D13_Pin|LCD_D14_Pin|LCD_D15_Pin|RS_Pin
 800203a:	f24e 73b3 	movw	r3, #59315	; 0xe7b3
 800203e:	9302      	str	r3, [sp, #8]
  HAL_GPIO_Init(GPIOD, &GPIO_InitStruct);
 8002040:	4808      	ldr	r0, [pc, #32]	; (8002064 <HAL_SRAM_MspInit+0x68>)
  GPIO_InitStruct.Alternate = GPIO_AF12_FSMC;
 8002042:	9506      	str	r5, [sp, #24]
  GPIO_InitStruct.Mode = GPIO_MODE_AF_PP;
 8002044:	2302      	movs	r3, #2
  HAL_GPIO_Init(GPIOD, &GPIO_InitStruct);
 8002046:	a902      	add	r1, sp, #8
  GPIO_InitStruct.Speed = GPIO_SPEED_FREQ_VERY_HIGH;
 8002048:	e9cd 4604 	strd	r4, r6, [sp, #16]
  GPIO_InitStruct.Mode = GPIO_MODE_AF_PP;
 800204c:	9303      	str	r3, [sp, #12]
  HAL_GPIO_Init(GPIOD, &GPIO_InitStruct);
 800204e:	f000 f91d 	bl	800228c <HAL_GPIO_Init>
  /* USER CODE END SRAM_MspInit 0 */
  HAL_FSMC_MspInit();
  /* USER CODE BEGIN SRAM_MspInit 1 */

  /* USER CODE END SRAM_MspInit 1 */
}
 8002052:	b008      	add	sp, #32
 8002054:	bd70      	pop	{r4, r5, r6, pc}
 8002056:	bf00      	nop
 8002058:	2000009c 	.word	0x2000009c
 800205c:	40023800 	.word	0x40023800
 8002060:	40021000 	.word	0x40021000
 8002064:	40020c00 	.word	0x40020c00

08002068 <NMI_Handler>:
{
  /* USER CODE BEGIN NonMaskableInt_IRQn 0 */

  /* USER CODE END NonMaskableInt_IRQn 0 */
  /* USER CODE BEGIN NonMaskableInt_IRQn 1 */
   while (1)
 8002068:	e7fe      	b.n	8002068 <NMI_Handler>
 800206a:	bf00      	nop

0800206c <HardFault_Handler>:
void HardFault_Handler(void)
{
  /* USER CODE BEGIN HardFault_IRQn 0 */

  /* USER CODE END HardFault_IRQn 0 */
  while (1)
 800206c:	e7fe      	b.n	800206c <HardFault_Handler>
 800206e:	bf00      	nop

08002070 <MemManage_Handler>:
void MemManage_Handler(void)
{
  /* USER CODE BEGIN MemoryManagement_IRQn 0 */

  /* USER CODE END MemoryManagement_IRQn 0 */
  while (1)
 8002070:	e7fe      	b.n	8002070 <MemManage_Handler>
 8002072:	bf00      	nop

08002074 <BusFault_Handler>:
void BusFault_Handler(void)
{
  /* USER CODE BEGIN BusFault_IRQn 0 */

  /* USER CODE END BusFault_IRQn 0 */
  while (1)
 8002074:	e7fe      	b.n	8002074 <BusFault_Handler>
 8002076:	bf00      	nop

08002078 <UsageFault_Handler>:
void UsageFault_Handler(void)
{
  /* USER CODE BEGIN UsageFault_IRQn 0 */

  /* USER CODE END UsageFault_IRQn 0 */
  while (1)
 8002078:	e7fe      	b.n	8002078 <UsageFault_Handler>
 800207a:	bf00      	nop

0800207c <SVC_Handler>:

  /* USER CODE END SVCall_IRQn 0 */
  /* USER CODE BEGIN SVCall_IRQn 1 */

  /* USER CODE END SVCall_IRQn 1 */
}
 800207c:	4770      	bx	lr
 800207e:	bf00      	nop

08002080 <DebugMon_Handler>:
 8002080:	4770      	bx	lr
 8002082:	bf00      	nop

08002084 <PendSV_Handler>:
 8002084:	4770      	bx	lr
 8002086:	bf00      	nop

08002088 <SysTick_Handler>:
void SysTick_Handler(void)
{
  /* USER CODE BEGIN SysTick_IRQn 0 */

  /* USER CODE END SysTick_IRQn 0 */
  HAL_IncTick();
 8002088:	f000 b872 	b.w	8002170 <HAL_IncTick>

0800208c <SystemInit>:
  */
void SystemInit(void)
{
  /* FPU settings ------------------------------------------------------------*/
  #if (__FPU_PRESENT == 1) && (__FPU_USED == 1)
    SCB->CPACR |= ((3UL << 10*2)|(3UL << 11*2));  /* set CP10 and CP11 Full Access */
 800208c:	4a03      	ldr	r2, [pc, #12]	; (800209c <SystemInit+0x10>)
 800208e:	f8d2 3088 	ldr.w	r3, [r2, #136]	; 0x88
 8002092:	f443 0370 	orr.w	r3, r3, #15728640	; 0xf00000
 8002096:	f8c2 3088 	str.w	r3, [r2, #136]	; 0x88

  /* Configure the Vector Table location -------------------------------------*/
#if defined(USER_VECT_TAB_ADDRESS)
  SCB->VTOR = VECT_TAB_BASE_ADDRESS | VECT_TAB_OFFSET; /* Vector Table Relocation in Internal SRAM */
#endif /* USER_VECT_TAB_ADDRESS */
}
 800209a:	4770      	bx	lr
 800209c:	e000ed00 	.word	0xe000ed00

080020a0 <Reset_Handler>:

    .section  .text.Reset_Handler
  .weak  Reset_Handler
  .type  Reset_Handler, %function
Reset_Handler:  
  ldr   sp, =_estack     /* set stack pointer */
 80020a0:	f8df d034 	ldr.w	sp, [pc, #52]	; 80020d8 <LoopFillZerobss+0xe>
  
/* Call the clock system initialization function.*/
  bl  SystemInit  
 80020a4:	f7ff fff2 	bl	800208c <SystemInit>

/* Copy the data segment initializers from flash to SRAM */  
  ldr r0, =_sdata
 80020a8:	480c      	ldr	r0, [pc, #48]	; (80020dc <LoopFillZerobss+0x12>)
  ldr r1, =_edata
 80020aa:	490d      	ldr	r1, [pc, #52]	; (80020e0 <LoopFillZerobss+0x16>)
  ldr r2, =_sidata
 80020ac:	4a0d      	ldr	r2, [pc, #52]	; (80020e4 <LoopFillZerobss+0x1a>)
  movs r3, #0
 80020ae:	2300      	movs	r3, #0
  b LoopCopyDataInit
 80020b0:	e002      	b.n	80020b8 <LoopCopyDataInit>

080020b2 <CopyDataInit>:

CopyDataInit:
  ldr r4, [r2, r3]
 80020b2:	58d4      	ldr	r4, [r2, r3]
  str r4, [r0, r3]
 80020b4:	50c4      	str	r4, [r0, r3]
  adds r3, r3, #4
 80020b6:	3304      	adds	r3, #4

080020b8 <LoopCopyDataInit>:

LoopCopyDataInit:
  adds r4, r0, r3
 80020b8:	18c4      	adds	r4, r0, r3
  cmp r4, r1
 80020ba:	428c      	cmp	r4, r1
  bcc CopyDataInit
 80020bc:	d3f9      	bcc.n	80020b2 <CopyDataInit>
  
/* Zero fill the bss segment. */
  ldr r2, =_sbss
 80020be:	4a0a      	ldr	r2, [pc, #40]	; (80020e8 <LoopFillZerobss+0x1e>)
  ldr r4, =_ebss
 80020c0:	4c0a      	ldr	r4, [pc, #40]	; (80020ec <LoopFillZerobss+0x22>)
  movs r3, #0
 80020c2:	2300      	movs	r3, #0
  b LoopFillZerobss
 80020c4:	e001      	b.n	80020ca <LoopFillZerobss>

080020c6 <FillZerobss>:

FillZerobss:
  str  r3, [r2]
 80020c6:	6013      	str	r3, [r2, #0]
  adds r2, r2, #4
 80020c8:	3204      	adds	r2, #4

080020ca <LoopFillZerobss>:

LoopFillZerobss:
  cmp r2, r4
 80020ca:	42a2      	cmp	r2, r4
  bcc FillZerobss
 80020cc:	d3fb      	bcc.n	80020c6 <FillZerobss>

/* Call static constructors */
    bl __libc_init_array
 80020ce:	f001 fbab 	bl	8003828 <__libc_init_array>
/* Call the application's entry point.*/
  bl  main
 80020d2:	f7fe fa51 	bl	8000578 <main>
  bx  lr    
 80020d6:	4770      	bx	lr
  ldr   sp, =_estack     /* set stack pointer */
 80020d8:	20020000 	.word	0x20020000
  ldr r0, =_sdata
 80020dc:	20000000 	.word	0x20000000
  ldr r1, =_edata
 80020e0:	2000000c 	.word	0x2000000c
  ldr r2, =_sidata
 80020e4:	080038a8 	.word	0x080038a8
  ldr r2, =_sbss
 80020e8:	2000000c 	.word	0x2000000c
  ldr r4, =_ebss
 80020ec:	200000a4 	.word	0x200000a4

080020f0 <ADC_IRQHandler>:
 * @retval None       
*/
    .section  .text.Default_Handler,"ax",%progbits
Default_Handler:
Infinite_Loop:
  b  Infinite_Loop
 80020f0:	e7fe      	b.n	80020f0 <ADC_IRQHandler>
	...

080020f4 <HAL_InitTick>:
  *       implementation  in user file.
  * @param TickPriority Tick interrupt priority.
  * @retval HAL status
  */
__weak HAL_StatusTypeDef HAL_InitTick(uint32_t TickPriority)
{
 80020f4:	b538      	push	{r3, r4, r5, lr}
  /* Configure the SysTick to have interrupt in 1ms time basis*/
  if (HAL_SYSTICK_Config(SystemCoreClock / (1000U / uwTickFreq)) > 0U)
 80020f6:	4a0e      	ldr	r2, [pc, #56]	; (8002130 <HAL_InitTick+0x3c>)
 80020f8:	4b0e      	ldr	r3, [pc, #56]	; (8002134 <HAL_InitTick+0x40>)
 80020fa:	7812      	ldrb	r2, [r2, #0]
 80020fc:	681b      	ldr	r3, [r3, #0]
{
 80020fe:	4605      	mov	r5, r0
  if (HAL_SYSTICK_Config(SystemCoreClock / (1000U / uwTickFreq)) > 0U)
 8002100:	f44f 707a 	mov.w	r0, #1000	; 0x3e8
 8002104:	fbb0 f0f2 	udiv	r0, r0, r2
 8002108:	fbb3 f0f0 	udiv	r0, r3, r0
 800210c:	f000 f8a4 	bl	8002258 <HAL_SYSTICK_Config>
 8002110:	b908      	cbnz	r0, 8002116 <HAL_InitTick+0x22>
  {
    return HAL_ERROR;
  }

  /* Configure the SysTick IRQ priority */
  if (TickPriority < (1UL << __NVIC_PRIO_BITS))
 8002112:	2d0f      	cmp	r5, #15
 8002114:	d901      	bls.n	800211a <HAL_InitTick+0x26>
    return HAL_ERROR;
 8002116:	2001      	movs	r0, #1
    return HAL_ERROR;
  }

  /* Return function status */
  return HAL_OK;
}
 8002118:	bd38      	pop	{r3, r4, r5, pc}
 800211a:	4604      	mov	r4, r0
    HAL_NVIC_SetPriority(SysTick_IRQn, TickPriority, 0U);
 800211c:	4602      	mov	r2, r0
 800211e:	4629      	mov	r1, r5
 8002120:	f04f 30ff 	mov.w	r0, #4294967295
 8002124:	f000 f85a 	bl	80021dc <HAL_NVIC_SetPriority>
    uwTickPrio = TickPriority;
 8002128:	4b03      	ldr	r3, [pc, #12]	; (8002138 <HAL_InitTick+0x44>)
 800212a:	4620      	mov	r0, r4
 800212c:	601d      	str	r5, [r3, #0]
}
 800212e:	bd38      	pop	{r3, r4, r5, pc}
 8002130:	20000004 	.word	0x20000004
 8002134:	20000000 	.word	0x20000000
 8002138:	20000008 	.word	0x20000008

0800213c <HAL_Init>:
{
 800213c:	b508      	push	{r3, lr}
  __HAL_FLASH_INSTRUCTION_CACHE_ENABLE();
 800213e:	4b0b      	ldr	r3, [pc, #44]	; (800216c <HAL_Init+0x30>)
 8002140:	681a      	ldr	r2, [r3, #0]
 8002142:	f442 7200 	orr.w	r2, r2, #512	; 0x200
 8002146:	601a      	str	r2, [r3, #0]
  __HAL_FLASH_DATA_CACHE_ENABLE();
 8002148:	681a      	ldr	r2, [r3, #0]
 800214a:	f442 6280 	orr.w	r2, r2, #1024	; 0x400
 800214e:	601a      	str	r2, [r3, #0]
  __HAL_FLASH_PREFETCH_BUFFER_ENABLE();
 8002150:	681a      	ldr	r2, [r3, #0]
 8002152:	f442 7280 	orr.w	r2, r2, #256	; 0x100
 8002156:	601a      	str	r2, [r3, #0]
  HAL_NVIC_SetPriorityGrouping(NVIC_PRIORITYGROUP_4);
 8002158:	2003      	movs	r0, #3
 800215a:	f000 f82d 	bl	80021b8 <HAL_NVIC_SetPriorityGrouping>
  HAL_InitTick(TICK_INT_PRIORITY);
 800215e:	200f      	movs	r0, #15
 8002160:	f7ff ffc8 	bl	80020f4 <HAL_InitTick>
  HAL_MspInit();
 8002164:	f7ff ff0a 	bl	8001f7c <HAL_MspInit>
}
 8002168:	2000      	movs	r0, #0
 800216a:	bd08      	pop	{r3, pc}
 800216c:	40023c00 	.word	0x40023c00

08002170 <HAL_IncTick>:
  *      implementations in user file.
  * @retval None
  */
__weak void HAL_IncTick(void)
{
  uwTick += uwTickFreq;
 8002170:	4a03      	ldr	r2, [pc, #12]	; (8002180 <HAL_IncTick+0x10>)
 8002172:	4b04      	ldr	r3, [pc, #16]	; (8002184 <HAL_IncTick+0x14>)
 8002174:	6811      	ldr	r1, [r2, #0]
 8002176:	781b      	ldrb	r3, [r3, #0]
 8002178:	440b      	add	r3, r1
 800217a:	6013      	str	r3, [r2, #0]
}
 800217c:	4770      	bx	lr
 800217e:	bf00      	nop
 8002180:	200000a0 	.word	0x200000a0
 8002184:	20000004 	.word	0x20000004

08002188 <HAL_GetTick>:
  *       implementations in user file.
  * @retval tick value
  */
__weak uint32_t HAL_GetTick(void)
{
  return uwTick;
 8002188:	4b01      	ldr	r3, [pc, #4]	; (8002190 <HAL_GetTick+0x8>)
 800218a:	6818      	ldr	r0, [r3, #0]
}
 800218c:	4770      	bx	lr
 800218e:	bf00      	nop
 8002190:	200000a0 	.word	0x200000a0

08002194 <HAL_Delay>:
  *       implementations in user file.
  * @param Delay specifies the delay time length, in milliseconds.
  * @retval None
  */
__weak void HAL_Delay(uint32_t Delay)
{
 8002194:	b538      	push	{r3, r4, r5, lr}
 8002196:	4604      	mov	r4, r0
  uint32_t tickstart = HAL_GetTick();
 8002198:	f7ff fff6 	bl	8002188 <HAL_GetTick>
  uint32_t wait = Delay;

  /* Add a freq to guarantee minimum wait */
  if (wait < HAL_MAX_DELAY)
 800219c:	1c63      	adds	r3, r4, #1
  uint32_t tickstart = HAL_GetTick();
 800219e:	4605      	mov	r5, r0
  if (wait < HAL_MAX_DELAY)
 80021a0:	d002      	beq.n	80021a8 <HAL_Delay+0x14>
  {
    wait += (uint32_t)(uwTickFreq);
 80021a2:	4b04      	ldr	r3, [pc, #16]	; (80021b4 <HAL_Delay+0x20>)
 80021a4:	781b      	ldrb	r3, [r3, #0]
 80021a6:	441c      	add	r4, r3
  }

  while((HAL_GetTick() - tickstart) < wait)
 80021a8:	f7ff ffee 	bl	8002188 <HAL_GetTick>
 80021ac:	1b43      	subs	r3, r0, r5
 80021ae:	42a3      	cmp	r3, r4
 80021b0:	d3fa      	bcc.n	80021a8 <HAL_Delay+0x14>
  {
  }
}
 80021b2:	bd38      	pop	{r3, r4, r5, pc}
 80021b4:	20000004 	.word	0x20000004

080021b8 <HAL_NVIC_SetPriorityGrouping>:
__STATIC_INLINE void __NVIC_SetPriorityGrouping(uint32_t PriorityGroup)
{
  uint32_t reg_value;
  uint32_t PriorityGroupTmp = (PriorityGroup & (uint32_t)0x07UL);             /* only values 0..7 are used          */

  reg_value  =  SCB->AIRCR;                                                   /* read old register configuration    */
 80021b8:	4907      	ldr	r1, [pc, #28]	; (80021d8 <HAL_NVIC_SetPriorityGrouping+0x20>)
 80021ba:	68ca      	ldr	r2, [r1, #12]
  reg_value &= ~((uint32_t)(SCB_AIRCR_VECTKEY_Msk | SCB_AIRCR_PRIGROUP_Msk)); /* clear bits to change               */
  reg_value  =  (reg_value                                   |
                ((uint32_t)0x5FAUL << SCB_AIRCR_VECTKEY_Pos) |
                (PriorityGroupTmp << SCB_AIRCR_PRIGROUP_Pos)  );              /* Insert write key and priority group */
 80021bc:	0203      	lsls	r3, r0, #8
  reg_value &= ~((uint32_t)(SCB_AIRCR_VECTKEY_Msk | SCB_AIRCR_PRIGROUP_Msk)); /* clear bits to change               */
 80021be:	f64f 00ff 	movw	r0, #63743	; 0xf8ff
                (PriorityGroupTmp << SCB_AIRCR_PRIGROUP_Pos)  );              /* Insert write key and priority group */
 80021c2:	f403 63e0 	and.w	r3, r3, #1792	; 0x700
  reg_value &= ~((uint32_t)(SCB_AIRCR_VECTKEY_Msk | SCB_AIRCR_PRIGROUP_Msk)); /* clear bits to change               */
 80021c6:	4002      	ands	r2, r0
                ((uint32_t)0x5FAUL << SCB_AIRCR_VECTKEY_Pos) |
 80021c8:	4313      	orrs	r3, r2
  reg_value  =  (reg_value                                   |
 80021ca:	f043 63bf 	orr.w	r3, r3, #100139008	; 0x5f80000
 80021ce:	f443 3300 	orr.w	r3, r3, #131072	; 0x20000
  SCB->AIRCR =  reg_value;
 80021d2:	60cb      	str	r3, [r1, #12]
  /* Check the parameters */
  assert_param(IS_NVIC_PRIORITY_GROUP(PriorityGroup));
  
  /* Set the PRIGROUP[10:8] bits according to the PriorityGroup parameter value */
  NVIC_SetPriorityGrouping(PriorityGroup);
}
 80021d4:	4770      	bx	lr
 80021d6:	bf00      	nop
 80021d8:	e000ed00 	.word	0xe000ed00

080021dc <HAL_NVIC_SetPriority>:
  \details Reads the priority grouping field from the NVIC Interrupt Controller.
  \return                Priority grouping field (SCB->AIRCR [10:8] PRIGROUP field).
 */
__STATIC_INLINE uint32_t __NVIC_GetPriorityGrouping(void)
{
  return ((uint32_t)((SCB->AIRCR & SCB_AIRCR_PRIGROUP_Msk) >> SCB_AIRCR_PRIGROUP_Pos));
 80021dc:	4b1c      	ldr	r3, [pc, #112]	; (8002250 <HAL_NVIC_SetPriority+0x74>)
 80021de:	68db      	ldr	r3, [r3, #12]
 80021e0:	f3c3 2302 	ubfx	r3, r3, #8, #3
  *         This parameter can be a value between 0 and 15
  *         A lower priority value indicates a higher priority.          
  * @retval None
  */
void HAL_NVIC_SetPriority(IRQn_Type IRQn, uint32_t PreemptPriority, uint32_t SubPriority)
{ 
 80021e4:	b500      	push	{lr}
{
  uint32_t PriorityGroupTmp = (PriorityGroup & (uint32_t)0x07UL);   /* only values 0..7 are used          */
  uint32_t PreemptPriorityBits;
  uint32_t SubPriorityBits;

  PreemptPriorityBits = ((7UL - PriorityGroupTmp) > (uint32_t)(__NVIC_PRIO_BITS)) ? (uint32_t)(__NVIC_PRIO_BITS) : (uint32_t)(7UL - PriorityGroupTmp);
 80021e6:	f1c3 0e07 	rsb	lr, r3, #7
 80021ea:	f1be 0f04 	cmp.w	lr, #4
  SubPriorityBits     = ((PriorityGroupTmp + (uint32_t)(__NVIC_PRIO_BITS)) < (uint32_t)7UL) ? (uint32_t)0UL : (uint32_t)((PriorityGroupTmp - 7UL) + (uint32_t)(__NVIC_PRIO_BITS));
 80021ee:	f103 0c04 	add.w	ip, r3, #4
  PreemptPriorityBits = ((7UL - PriorityGroupTmp) > (uint32_t)(__NVIC_PRIO_BITS)) ? (uint32_t)(__NVIC_PRIO_BITS) : (uint32_t)(7UL - PriorityGroupTmp);
 80021f2:	bf28      	it	cs
 80021f4:	f04f 0e04 	movcs.w	lr, #4
  SubPriorityBits     = ((PriorityGroupTmp + (uint32_t)(__NVIC_PRIO_BITS)) < (uint32_t)7UL) ? (uint32_t)0UL : (uint32_t)((PriorityGroupTmp - 7UL) + (uint32_t)(__NVIC_PRIO_BITS));
 80021f8:	f1bc 0f06 	cmp.w	ip, #6
 80021fc:	d91b      	bls.n	8002236 <HAL_NVIC_SetPriority+0x5a>
 80021fe:	3b03      	subs	r3, #3

  return (
           ((PreemptPriority & (uint32_t)((1UL << (PreemptPriorityBits)) - 1UL)) << SubPriorityBits) |
           ((SubPriority     & (uint32_t)((1UL << (SubPriorityBits    )) - 1UL)))
 8002200:	f04f 3cff 	mov.w	ip, #4294967295
 8002204:	fa0c fc03 	lsl.w	ip, ip, r3
 8002208:	ea22 020c 	bic.w	r2, r2, ip
           ((PreemptPriority & (uint32_t)((1UL << (PreemptPriorityBits)) - 1UL)) << SubPriorityBits) |
 800220c:	f04f 3cff 	mov.w	ip, #4294967295
 8002210:	fa0c fc0e 	lsl.w	ip, ip, lr
 8002214:	ea21 010c 	bic.w	r1, r1, ip
 8002218:	4099      	lsls	r1, r3
  if ((int32_t)(IRQn) >= 0)
 800221a:	2800      	cmp	r0, #0
           ((PreemptPriority & (uint32_t)((1UL << (PreemptPriorityBits)) - 1UL)) << SubPriorityBits) |
 800221c:	ea41 0102 	orr.w	r1, r1, r2
  if ((int32_t)(IRQn) >= 0)
 8002220:	db0c      	blt.n	800223c <HAL_NVIC_SetPriority+0x60>
    NVIC->IP[((uint32_t)IRQn)]               = (uint8_t)((priority << (8U - __NVIC_PRIO_BITS)) & (uint32_t)0xFFUL);
 8002222:	f100 4060 	add.w	r0, r0, #3758096384	; 0xe0000000
 8002226:	0109      	lsls	r1, r1, #4
 8002228:	f500 4061 	add.w	r0, r0, #57600	; 0xe100
 800222c:	b2c9      	uxtb	r1, r1
 800222e:	f880 1300 	strb.w	r1, [r0, #768]	; 0x300
  assert_param(IS_NVIC_PREEMPTION_PRIORITY(PreemptPriority));
  
  prioritygroup = NVIC_GetPriorityGrouping();
  
  NVIC_SetPriority(IRQn, NVIC_EncodePriority(prioritygroup, PreemptPriority, SubPriority));
}
 8002232:	f85d fb04 	ldr.w	pc, [sp], #4
 8002236:	2200      	movs	r2, #0
  SubPriorityBits     = ((PriorityGroupTmp + (uint32_t)(__NVIC_PRIO_BITS)) < (uint32_t)7UL) ? (uint32_t)0UL : (uint32_t)((PriorityGroupTmp - 7UL) + (uint32_t)(__NVIC_PRIO_BITS));
 8002238:	4613      	mov	r3, r2
 800223a:	e7e7      	b.n	800220c <HAL_NVIC_SetPriority+0x30>
    SCB->SHP[(((uint32_t)IRQn) & 0xFUL)-4UL] = (uint8_t)((priority << (8U - __NVIC_PRIO_BITS)) & (uint32_t)0xFFUL);
 800223c:	4b05      	ldr	r3, [pc, #20]	; (8002254 <HAL_NVIC_SetPriority+0x78>)
 800223e:	f000 000f 	and.w	r0, r0, #15
 8002242:	0109      	lsls	r1, r1, #4
 8002244:	4403      	add	r3, r0
 8002246:	b2c9      	uxtb	r1, r1
 8002248:	7619      	strb	r1, [r3, #24]
 800224a:	f85d fb04 	ldr.w	pc, [sp], #4
 800224e:	bf00      	nop
 8002250:	e000ed00 	.word	0xe000ed00
 8002254:	e000ecfc 	.word	0xe000ecfc

08002258 <HAL_SYSTICK_Config>:
           function <b>SysTick_Config</b> is not included. In this case, the file <b><i>device</i>.h</b>
           must contain a vendor-specific implementation of this function.
 */
__STATIC_INLINE uint32_t SysTick_Config(uint32_t ticks)
{
  if ((ticks - 1UL) > SysTick_LOAD_RELOAD_Msk)
 8002258:	3801      	subs	r0, #1
 800225a:	f1b0 7f80 	cmp.w	r0, #16777216	; 0x1000000
 800225e:	d210      	bcs.n	8002282 <HAL_SYSTICK_Config+0x2a>
  * @param  TicksNumb Specifies the ticks Number of ticks between two interrupts.
  * @retval status:  - 0  Function succeeded.
  *                  - 1  Function failed.
  */
uint32_t HAL_SYSTICK_Config(uint32_t TicksNumb)
{
 8002260:	b410      	push	{r4}
  {
    return (1UL);                                                   /* Reload value impossible */
  }

  SysTick->LOAD  = (uint32_t)(ticks - 1UL);                         /* set reload register */
 8002262:	f04f 23e0 	mov.w	r3, #3758153728	; 0xe000e000
    SCB->SHP[(((uint32_t)IRQn) & 0xFUL)-4UL] = (uint8_t)((priority << (8U - __NVIC_PRIO_BITS)) & (uint32_t)0xFFUL);
 8002266:	4c08      	ldr	r4, [pc, #32]	; (8002288 <HAL_SYSTICK_Config+0x30>)
  SysTick->LOAD  = (uint32_t)(ticks - 1UL);                         /* set reload register */
 8002268:	6158      	str	r0, [r3, #20]
    SCB->SHP[(((uint32_t)IRQn) & 0xFUL)-4UL] = (uint8_t)((priority << (8U - __NVIC_PRIO_BITS)) & (uint32_t)0xFFUL);
 800226a:	f04f 0cf0 	mov.w	ip, #240	; 0xf0
 800226e:	f884 c023 	strb.w	ip, [r4, #35]	; 0x23
  NVIC_SetPriority (SysTick_IRQn, (1UL << __NVIC_PRIO_BITS) - 1UL); /* set Priority for Systick Interrupt */
  SysTick->VAL   = 0UL;                                             /* Load the SysTick Counter Value */
 8002272:	2200      	movs	r2, #0
  SysTick->CTRL  = SysTick_CTRL_CLKSOURCE_Msk |
 8002274:	2107      	movs	r1, #7
                   SysTick_CTRL_TICKINT_Msk   |
                   SysTick_CTRL_ENABLE_Msk;                         /* Enable SysTick IRQ and SysTick Timer */
  return (0UL);                                                     /* Function successful */
 8002276:	4610      	mov	r0, r2
  SysTick->VAL   = 0UL;                                             /* Load the SysTick Counter Value */
 8002278:	619a      	str	r2, [r3, #24]
   return SysTick_Config(TicksNumb);
}
 800227a:	f85d 4b04 	ldr.w	r4, [sp], #4
  SysTick->CTRL  = SysTick_CTRL_CLKSOURCE_Msk |
 800227e:	6119      	str	r1, [r3, #16]
 8002280:	4770      	bx	lr
    return (1UL);                                                   /* Reload value impossible */
 8002282:	2001      	movs	r0, #1
 8002284:	4770      	bx	lr
 8002286:	bf00      	nop
 8002288:	e000ed00 	.word	0xe000ed00

0800228c <HAL_GPIO_Init>:
  * @param  GPIO_Init pointer to a GPIO_InitTypeDef structure that contains
  *         the configuration information for the specified GPIO peripheral.
  * @retval None
  */
void HAL_GPIO_Init(GPIO_TypeDef  *GPIOx, GPIO_InitTypeDef *GPIO_Init)
{
 800228c:	e92d 4ff0 	stmdb	sp!, {r4, r5, r6, r7, r8, r9, sl, fp, lr}
  for(position = 0U; position < GPIO_NUMBER; position++)
  {
    /* Get the IO position */
    ioposition = 0x01U << position;
    /* Get the current IO position */
    iocurrent = (uint32_t)(GPIO_Init->Pin) & ioposition;
 8002290:	2200      	movs	r2, #0
 8002292:	680c      	ldr	r4, [r1, #0]
      /*--------------------- EXTI Mode Configuration ------------------------*/
      /* Configure the External Interrupt or event for the current IO */
      if((GPIO_Init->Mode & EXTI_MODE) != 0x00U)
      {
        /* Enable SYSCFG Clock */
        __HAL_RCC_SYSCFG_CLK_ENABLE();
 8002294:	f8df a230 	ldr.w	sl, [pc, #560]	; 80024c8 <HAL_GPIO_Init+0x23c>
        temp &= ~(0x0FU << (4U * (position & 0x03U)));
        temp |= ((uint32_t)(GPIO_GET_INDEX(GPIOx)) << (4U * (position & 0x03U)));
        SYSCFG->EXTICR[position >> 2U] = temp;

        /* Clear Rising Falling edge configuration */
        temp = EXTI->RTSR;
 8002298:	4e84      	ldr	r6, [pc, #528]	; (80024ac <HAL_GPIO_Init+0x220>)
{
 800229a:	b085      	sub	sp, #20
  for(position = 0U; position < GPIO_NUMBER; position++)
 800229c:	4613      	mov	r3, r2
        temp |= ((uint32_t)(GPIO_GET_INDEX(GPIOx)) << (4U * (position & 0x03U)));
 800229e:	4689      	mov	r9, r1
 80022a0:	e005      	b.n	80022ae <HAL_GPIO_Init+0x22>
  for(position = 0U; position < GPIO_NUMBER; position++)
 80022a2:	3301      	adds	r3, #1
 80022a4:	2b10      	cmp	r3, #16
 80022a6:	f102 0202 	add.w	r2, r2, #2
 80022aa:	f000 808a 	beq.w	80023c2 <HAL_GPIO_Init+0x136>
    ioposition = 0x01U << position;
 80022ae:	2101      	movs	r1, #1
 80022b0:	4099      	lsls	r1, r3
    iocurrent = (uint32_t)(GPIO_Init->Pin) & ioposition;
 80022b2:	ea01 0b04 	and.w	fp, r1, r4
    if(iocurrent == ioposition)
 80022b6:	43a1      	bics	r1, r4
 80022b8:	d1f3      	bne.n	80022a2 <HAL_GPIO_Init+0x16>
      if(((GPIO_Init->Mode & GPIO_MODE) == MODE_OUTPUT) || \
 80022ba:	f8d9 c004 	ldr.w	ip, [r9, #4]
 80022be:	f00c 0103 	and.w	r1, ip, #3
 80022c2:	1e4d      	subs	r5, r1, #1
 80022c4:	2d01      	cmp	r5, #1
 80022c6:	d97f      	bls.n	80023c8 <HAL_GPIO_Init+0x13c>
      if((GPIO_Init->Mode & GPIO_MODE) != MODE_ANALOG)
 80022c8:	2903      	cmp	r1, #3
 80022ca:	f040 80c0 	bne.w	800244e <HAL_GPIO_Init+0x1c2>
        temp &= ~(GPIO_OSPEEDER_OSPEEDR0 << (position * 2U));
 80022ce:	4091      	lsls	r1, r2
 80022d0:	43cd      	mvns	r5, r1
      temp = GPIOx->MODER;
 80022d2:	6807      	ldr	r7, [r0, #0]
      temp &= ~(GPIO_MODER_MODER0 << (position * 2U));
 80022d4:	403d      	ands	r5, r7
      temp |= ((GPIO_Init->Mode & GPIO_MODE) << (position * 2U));
 80022d6:	4329      	orrs	r1, r5
      if((GPIO_Init->Mode & EXTI_MODE) != 0x00U)
 80022d8:	f41c 3f40 	tst.w	ip, #196608	; 0x30000
      GPIOx->MODER = temp;
 80022dc:	6001      	str	r1, [r0, #0]
      if((GPIO_Init->Mode & EXTI_MODE) != 0x00U)
 80022de:	d0e0      	beq.n	80022a2 <HAL_GPIO_Init+0x16>
        __HAL_RCC_SYSCFG_CLK_ENABLE();
 80022e0:	2100      	movs	r1, #0
 80022e2:	9103      	str	r1, [sp, #12]
 80022e4:	f8da 1044 	ldr.w	r1, [sl, #68]	; 0x44
 80022e8:	f441 4180 	orr.w	r1, r1, #16384	; 0x4000
 80022ec:	f8ca 1044 	str.w	r1, [sl, #68]	; 0x44
 80022f0:	f8da 1044 	ldr.w	r1, [sl, #68]	; 0x44
 80022f4:	f401 4180 	and.w	r1, r1, #16384	; 0x4000
 80022f8:	9103      	str	r1, [sp, #12]
 80022fa:	9903      	ldr	r1, [sp, #12]
        temp = SYSCFG->EXTICR[position >> 2U];
 80022fc:	f023 0103 	bic.w	r1, r3, #3
 8002300:	f101 4180 	add.w	r1, r1, #1073741824	; 0x40000000
 8002304:	f501 319c 	add.w	r1, r1, #79872	; 0x13800
        temp &= ~(0x0FU << (4U * (position & 0x03U)));
 8002308:	f003 0703 	and.w	r7, r3, #3
        temp = SYSCFG->EXTICR[position >> 2U];
 800230c:	688d      	ldr	r5, [r1, #8]
        temp &= ~(0x0FU << (4U * (position & 0x03U)));
 800230e:	00bf      	lsls	r7, r7, #2
 8002310:	f04f 0e0f 	mov.w	lr, #15
 8002314:	fa0e fe07 	lsl.w	lr, lr, r7
 8002318:	ea25 080e 	bic.w	r8, r5, lr
        temp |= ((uint32_t)(GPIO_GET_INDEX(GPIOx)) << (4U * (position & 0x03U)));
 800231c:	4d64      	ldr	r5, [pc, #400]	; (80024b0 <HAL_GPIO_Init+0x224>)
 800231e:	42a8      	cmp	r0, r5
 8002320:	d024      	beq.n	800236c <HAL_GPIO_Init+0xe0>
 8002322:	f505 6580 	add.w	r5, r5, #1024	; 0x400
 8002326:	42a8      	cmp	r0, r5
 8002328:	f000 8095 	beq.w	8002456 <HAL_GPIO_Init+0x1ca>
 800232c:	4d61      	ldr	r5, [pc, #388]	; (80024b4 <HAL_GPIO_Init+0x228>)
 800232e:	42a8      	cmp	r0, r5
 8002330:	f000 8098 	beq.w	8002464 <HAL_GPIO_Init+0x1d8>
 8002334:	4d60      	ldr	r5, [pc, #384]	; (80024b8 <HAL_GPIO_Init+0x22c>)
 8002336:	42a8      	cmp	r0, r5
 8002338:	f000 809b 	beq.w	8002472 <HAL_GPIO_Init+0x1e6>
 800233c:	4d5f      	ldr	r5, [pc, #380]	; (80024bc <HAL_GPIO_Init+0x230>)
 800233e:	42a8      	cmp	r0, r5
 8002340:	f000 809e 	beq.w	8002480 <HAL_GPIO_Init+0x1f4>
 8002344:	4d5e      	ldr	r5, [pc, #376]	; (80024c0 <HAL_GPIO_Init+0x234>)
 8002346:	42a8      	cmp	r0, r5
 8002348:	f000 80a1 	beq.w	800248e <HAL_GPIO_Init+0x202>
 800234c:	4d5d      	ldr	r5, [pc, #372]	; (80024c4 <HAL_GPIO_Init+0x238>)
 800234e:	42a8      	cmp	r0, r5
 8002350:	f000 80a4 	beq.w	800249c <HAL_GPIO_Init+0x210>
 8002354:	f8df e174 	ldr.w	lr, [pc, #372]	; 80024cc <HAL_GPIO_Init+0x240>
 8002358:	4570      	cmp	r0, lr
 800235a:	bf0c      	ite	eq
 800235c:	f04f 0e07 	moveq.w	lr, #7
 8002360:	f04f 0e08 	movne.w	lr, #8
 8002364:	fa0e f707 	lsl.w	r7, lr, r7
 8002368:	ea48 0807 	orr.w	r8, r8, r7
        SYSCFG->EXTICR[position >> 2U] = temp;
 800236c:	f8c1 8008 	str.w	r8, [r1, #8]
        temp = EXTI->RTSR;
 8002370:	68b1      	ldr	r1, [r6, #8]
        temp &= ~((uint32_t)iocurrent);
 8002372:	ea6f 050b 	mvn.w	r5, fp
        if((GPIO_Init->Mode & TRIGGER_RISING) != 0x00U)
 8002376:	f41c 1f80 	tst.w	ip, #1048576	; 0x100000
        temp &= ~((uint32_t)iocurrent);
 800237a:	bf0c      	ite	eq
 800237c:	4029      	andeq	r1, r5
        {
          temp |= iocurrent;
 800237e:	ea4b 0101 	orrne.w	r1, fp, r1
        }
        EXTI->RTSR = temp;
 8002382:	60b1      	str	r1, [r6, #8]

        temp = EXTI->FTSR;
 8002384:	68f1      	ldr	r1, [r6, #12]
        temp &= ~((uint32_t)iocurrent);
        if((GPIO_Init->Mode & TRIGGER_FALLING) != 0x00U)
 8002386:	f41c 1f00 	tst.w	ip, #2097152	; 0x200000
        temp &= ~((uint32_t)iocurrent);
 800238a:	bf0c      	ite	eq
 800238c:	4029      	andeq	r1, r5
        {
          temp |= iocurrent;
 800238e:	ea4b 0101 	orrne.w	r1, fp, r1
        }
        EXTI->FTSR = temp;
 8002392:	60f1      	str	r1, [r6, #12]

        temp = EXTI->EMR;
 8002394:	6871      	ldr	r1, [r6, #4]
        temp &= ~((uint32_t)iocurrent);
        if((GPIO_Init->Mode & EXTI_EVT) != 0x00U)
 8002396:	f41c 3f00 	tst.w	ip, #131072	; 0x20000
        temp &= ~((uint32_t)iocurrent);
 800239a:	bf0c      	ite	eq
 800239c:	4029      	andeq	r1, r5
        {
          temp |= iocurrent;
 800239e:	ea4b 0101 	orrne.w	r1, fp, r1
        }
        EXTI->EMR = temp;
 80023a2:	6071      	str	r1, [r6, #4]

        /* Clear EXTI line configuration */
        temp = EXTI->IMR;
 80023a4:	6831      	ldr	r1, [r6, #0]
        temp &= ~((uint32_t)iocurrent);
        if((GPIO_Init->Mode & EXTI_IT) != 0x00U)
 80023a6:	f41c 3f80 	tst.w	ip, #65536	; 0x10000
  for(position = 0U; position < GPIO_NUMBER; position++)
 80023aa:	f103 0301 	add.w	r3, r3, #1
        temp &= ~((uint32_t)iocurrent);
 80023ae:	bf0c      	ite	eq
 80023b0:	4029      	andeq	r1, r5
        {
          temp |= iocurrent;
 80023b2:	ea4b 0101 	orrne.w	r1, fp, r1
  for(position = 0U; position < GPIO_NUMBER; position++)
 80023b6:	2b10      	cmp	r3, #16
        }
        EXTI->IMR = temp;
 80023b8:	6031      	str	r1, [r6, #0]
  for(position = 0U; position < GPIO_NUMBER; position++)
 80023ba:	f102 0202 	add.w	r2, r2, #2
 80023be:	f47f af76 	bne.w	80022ae <HAL_GPIO_Init+0x22>
      }
    }
  }
}
 80023c2:	b005      	add	sp, #20
 80023c4:	e8bd 8ff0 	ldmia.w	sp!, {r4, r5, r6, r7, r8, r9, sl, fp, pc}
        temp |= (GPIO_Init->Speed << (position * 2U));
 80023c8:	f8d9 500c 	ldr.w	r5, [r9, #12]
        temp = GPIOx->OSPEEDR; 
 80023cc:	f8d0 e008 	ldr.w	lr, [r0, #8]
        temp |= (GPIO_Init->Speed << (position * 2U));
 80023d0:	fa05 f702 	lsl.w	r7, r5, r2
        temp &= ~(GPIO_OSPEEDER_OSPEEDR0 << (position * 2U));
 80023d4:	2503      	movs	r5, #3
 80023d6:	fa05 f802 	lsl.w	r8, r5, r2
 80023da:	ea2e 0e08 	bic.w	lr, lr, r8
        temp |= (GPIO_Init->Speed << (position * 2U));
 80023de:	ea47 070e 	orr.w	r7, r7, lr
        GPIOx->OSPEEDR = temp;
 80023e2:	6087      	str	r7, [r0, #8]
        temp = GPIOx->OTYPER;
 80023e4:	6847      	ldr	r7, [r0, #4]
        temp &= ~(GPIO_OTYPER_OT_0 << position) ;
 80023e6:	ea27 0e0b 	bic.w	lr, r7, fp
        temp |= (((GPIO_Init->Mode & OUTPUT_TYPE) >> OUTPUT_TYPE_Pos) << position);
 80023ea:	f3cc 1700 	ubfx	r7, ip, #4, #1
 80023ee:	409f      	lsls	r7, r3
 80023f0:	ea47 070e 	orr.w	r7, r7, lr
        temp &= ~(GPIO_OSPEEDER_OSPEEDR0 << (position * 2U));
 80023f4:	ea6f 0508 	mvn.w	r5, r8
        GPIOx->OTYPER = temp;
 80023f8:	6047      	str	r7, [r0, #4]
        temp = GPIOx->PUPDR;
 80023fa:	68c7      	ldr	r7, [r0, #12]
        temp &= ~(GPIO_PUPDR_PUPDR0 << (position * 2U));
 80023fc:	ea07 0e05 	and.w	lr, r7, r5
        temp |= ((GPIO_Init->Pull) << (position * 2U));
 8002400:	f8d9 7008 	ldr.w	r7, [r9, #8]
 8002404:	4097      	lsls	r7, r2
 8002406:	ea47 070e 	orr.w	r7, r7, lr
      if((GPIO_Init->Mode & GPIO_MODE) == MODE_AF)
 800240a:	2902      	cmp	r1, #2
        GPIOx->PUPDR = temp;
 800240c:	60c7      	str	r7, [r0, #12]
      if((GPIO_Init->Mode & GPIO_MODE) == MODE_AF)
 800240e:	fa01 f102 	lsl.w	r1, r1, r2
 8002412:	f47f af5e 	bne.w	80022d2 <HAL_GPIO_Init+0x46>
        temp = GPIOx->AFR[position >> 3U];
 8002416:	ea4f 0ed3 	mov.w	lr, r3, lsr #3
 800241a:	eb00 0e8e 	add.w	lr, r0, lr, lsl #2
        temp &= ~(0xFU << ((uint32_t)(position & 0x07U) * 4U)) ;
 800241e:	f003 0807 	and.w	r8, r3, #7
        temp = GPIOx->AFR[position >> 3U];
 8002422:	f8de 7020 	ldr.w	r7, [lr, #32]
 8002426:	9700      	str	r7, [sp, #0]
        temp |= ((uint32_t)(GPIO_Init->Alternate) << (((uint32_t)position & 0x07U) * 4U));
 8002428:	f8d9 7010 	ldr.w	r7, [r9, #16]
        temp &= ~(0xFU << ((uint32_t)(position & 0x07U) * 4U)) ;
 800242c:	ea4f 0888 	mov.w	r8, r8, lsl #2
        temp |= ((uint32_t)(GPIO_Init->Alternate) << (((uint32_t)position & 0x07U) * 4U));
 8002430:	fa07 f708 	lsl.w	r7, r7, r8
 8002434:	9701      	str	r7, [sp, #4]
        temp &= ~(0xFU << ((uint32_t)(position & 0x07U) * 4U)) ;
 8002436:	270f      	movs	r7, #15
 8002438:	fa07 f808 	lsl.w	r8, r7, r8
 800243c:	9f00      	ldr	r7, [sp, #0]
 800243e:	ea27 0808 	bic.w	r8, r7, r8
        temp |= ((uint32_t)(GPIO_Init->Alternate) << (((uint32_t)position & 0x07U) * 4U));
 8002442:	9f01      	ldr	r7, [sp, #4]
 8002444:	ea47 0708 	orr.w	r7, r7, r8
        GPIOx->AFR[position >> 3U] = temp;
 8002448:	f8ce 7020 	str.w	r7, [lr, #32]
 800244c:	e741      	b.n	80022d2 <HAL_GPIO_Init+0x46>
        temp &= ~(GPIO_OSPEEDER_OSPEEDR0 << (position * 2U));
 800244e:	2503      	movs	r5, #3
 8002450:	4095      	lsls	r5, r2
 8002452:	43ed      	mvns	r5, r5
 8002454:	e7d1      	b.n	80023fa <HAL_GPIO_Init+0x16e>
        temp |= ((uint32_t)(GPIO_GET_INDEX(GPIOx)) << (4U * (position & 0x03U)));
 8002456:	f04f 0e01 	mov.w	lr, #1
 800245a:	fa0e f707 	lsl.w	r7, lr, r7
 800245e:	ea48 0807 	orr.w	r8, r8, r7
 8002462:	e783      	b.n	800236c <HAL_GPIO_Init+0xe0>
 8002464:	f04f 0e02 	mov.w	lr, #2
 8002468:	fa0e f707 	lsl.w	r7, lr, r7
 800246c:	ea48 0807 	orr.w	r8, r8, r7
 8002470:	e77c      	b.n	800236c <HAL_GPIO_Init+0xe0>
 8002472:	f04f 0e03 	mov.w	lr, #3
 8002476:	fa0e f707 	lsl.w	r7, lr, r7
 800247a:	ea48 0807 	orr.w	r8, r8, r7
 800247e:	e775      	b.n	800236c <HAL_GPIO_Init+0xe0>
 8002480:	f04f 0e04 	mov.w	lr, #4
 8002484:	fa0e f707 	lsl.w	r7, lr, r7
 8002488:	ea48 0807 	orr.w	r8, r8, r7
 800248c:	e76e      	b.n	800236c <HAL_GPIO_Init+0xe0>
 800248e:	f04f 0e05 	mov.w	lr, #5
 8002492:	fa0e f707 	lsl.w	r7, lr, r7
 8002496:	ea48 0807 	orr.w	r8, r8, r7
 800249a:	e767      	b.n	800236c <HAL_GPIO_Init+0xe0>
 800249c:	f04f 0e06 	mov.w	lr, #6
 80024a0:	fa0e f707 	lsl.w	r7, lr, r7
 80024a4:	ea48 0807 	orr.w	r8, r8, r7
 80024a8:	e760      	b.n	800236c <HAL_GPIO_Init+0xe0>
 80024aa:	bf00      	nop
 80024ac:	40013c00 	.word	0x40013c00
 80024b0:	40020000 	.word	0x40020000
 80024b4:	40020800 	.word	0x40020800
 80024b8:	40020c00 	.word	0x40020c00
 80024bc:	40021000 	.word	0x40021000
 80024c0:	40021400 	.word	0x40021400
 80024c4:	40021800 	.word	0x40021800
 80024c8:	40023800 	.word	0x40023800
 80024cc:	40021c00 	.word	0x40021c00

080024d0 <HAL_GPIO_WritePin>:
{
  /* Check the parameters */
  assert_param(IS_GPIO_PIN(GPIO_Pin));
  assert_param(IS_GPIO_PIN_ACTION(PinState));

  if(PinState != GPIO_PIN_RESET)
 80024d0:	b902      	cbnz	r2, 80024d4 <HAL_GPIO_WritePin+0x4>
  {
    GPIOx->BSRR = GPIO_Pin;
  }
  else
  {
    GPIOx->BSRR = (uint32_t)GPIO_Pin << 16U;
 80024d2:	0409      	lsls	r1, r1, #16
 80024d4:	6181      	str	r1, [r0, #24]
  }
}
 80024d6:	4770      	bx	lr

080024d8 <HAL_PWR_EnableBkUpAccess>:
  * @retval None
  */
void HAL_PWR_EnableBkUpAccess(void)
{
  __IO uint32_t dummyread;
  *(__IO uint32_t *) CR_DBP_BB = (uint32_t)ENABLE;
 80024d8:	4a04      	ldr	r2, [pc, #16]	; (80024ec <HAL_PWR_EnableBkUpAccess+0x14>)
  dummyread = PWR->CR;
 80024da:	4b05      	ldr	r3, [pc, #20]	; (80024f0 <HAL_PWR_EnableBkUpAccess+0x18>)
  *(__IO uint32_t *) CR_DBP_BB = (uint32_t)ENABLE;
 80024dc:	2101      	movs	r1, #1
{
 80024de:	b082      	sub	sp, #8
  *(__IO uint32_t *) CR_DBP_BB = (uint32_t)ENABLE;
 80024e0:	6211      	str	r1, [r2, #32]
  dummyread = PWR->CR;
 80024e2:	681b      	ldr	r3, [r3, #0]
 80024e4:	9301      	str	r3, [sp, #4]
  UNUSED(dummyread);
 80024e6:	9b01      	ldr	r3, [sp, #4]
}
 80024e8:	b002      	add	sp, #8
 80024ea:	4770      	bx	lr
 80024ec:	420e0000 	.word	0x420e0000
 80024f0:	40007000 	.word	0x40007000

080024f4 <HAL_RCC_OscConfig>:
__weak HAL_StatusTypeDef HAL_RCC_OscConfig(const RCC_OscInitTypeDef  *RCC_OscInitStruct)
{
  uint32_t tickstart;
  uint32_t pll_config;
  /* Check Null pointer */
  if (RCC_OscInitStruct == NULL)
 80024f4:	2800      	cmp	r0, #0
 80024f6:	f000 81a2 	beq.w	800283e <HAL_RCC_OscConfig+0x34a>
{
 80024fa:	e92d 41f0 	stmdb	sp!, {r4, r5, r6, r7, r8, lr}
  }

  /* Check the parameters */
  assert_param(IS_RCC_OSCILLATORTYPE(RCC_OscInitStruct->OscillatorType));
  /*------------------------------- HSE Configuration ------------------------*/
  if (((RCC_OscInitStruct->OscillatorType) & RCC_OSCILLATORTYPE_HSE) == RCC_OSCILLATORTYPE_HSE)
 80024fe:	6803      	ldr	r3, [r0, #0]
 8002500:	07dd      	lsls	r5, r3, #31
{
 8002502:	b082      	sub	sp, #8
 8002504:	4604      	mov	r4, r0
  if (((RCC_OscInitStruct->OscillatorType) & RCC_OSCILLATORTYPE_HSE) == RCC_OSCILLATORTYPE_HSE)
 8002506:	d52f      	bpl.n	8002568 <HAL_RCC_OscConfig+0x74>
  {
    /* Check the parameters */
    assert_param(IS_RCC_HSE(RCC_OscInitStruct->HSEState));
    /* When the HSE is used as system clock or clock source for PLL in these cases HSE will not disabled */
    if ((__HAL_RCC_GET_SYSCLK_SOURCE() == RCC_CFGR_SWS_HSE) || \
 8002508:	499e      	ldr	r1, [pc, #632]	; (8002784 <HAL_RCC_OscConfig+0x290>)
 800250a:	688a      	ldr	r2, [r1, #8]
 800250c:	f002 020c 	and.w	r2, r2, #12
 8002510:	2a04      	cmp	r2, #4
 8002512:	f000 80ed 	beq.w	80026f0 <HAL_RCC_OscConfig+0x1fc>
        ((__HAL_RCC_GET_SYSCLK_SOURCE() == RCC_CFGR_SWS_PLL) && ((RCC->PLLCFGR & RCC_PLLCFGR_PLLSRC) == RCC_PLLCFGR_PLLSRC_HSE)))
 8002516:	688a      	ldr	r2, [r1, #8]
 8002518:	f002 020c 	and.w	r2, r2, #12
    if ((__HAL_RCC_GET_SYSCLK_SOURCE() == RCC_CFGR_SWS_HSE) || \
 800251c:	2a08      	cmp	r2, #8
 800251e:	f000 80e3 	beq.w	80026e8 <HAL_RCC_OscConfig+0x1f4>
      }
    }
    else
    {
      /* Set the new HSE configuration ---------------------------------------*/
      __HAL_RCC_HSE_CONFIG(RCC_OscInitStruct->HSEState);
 8002522:	6863      	ldr	r3, [r4, #4]
 8002524:	f5b3 3f80 	cmp.w	r3, #65536	; 0x10000
 8002528:	f000 80ec 	beq.w	8002704 <HAL_RCC_OscConfig+0x210>
 800252c:	f5b3 2fa0 	cmp.w	r3, #327680	; 0x50000
 8002530:	f000 8175 	beq.w	800281e <HAL_RCC_OscConfig+0x32a>
 8002534:	4d93      	ldr	r5, [pc, #588]	; (8002784 <HAL_RCC_OscConfig+0x290>)
 8002536:	682a      	ldr	r2, [r5, #0]
 8002538:	f422 3280 	bic.w	r2, r2, #65536	; 0x10000
 800253c:	602a      	str	r2, [r5, #0]
 800253e:	682a      	ldr	r2, [r5, #0]
 8002540:	f422 2280 	bic.w	r2, r2, #262144	; 0x40000
 8002544:	602a      	str	r2, [r5, #0]

      /* Check the HSE State */
      if ((RCC_OscInitStruct->HSEState) != RCC_HSE_OFF)
 8002546:	2b00      	cmp	r3, #0
 8002548:	f040 80e1 	bne.w	800270e <HAL_RCC_OscConfig+0x21a>
        }
      }
      else
      {
        /* Get Start Tick */
        tickstart = HAL_GetTick();
 800254c:	f7ff fe1c 	bl	8002188 <HAL_GetTick>
 8002550:	4606      	mov	r6, r0

        /* Wait till HSE is bypassed or disabled */
        while (__HAL_RCC_GET_FLAG(RCC_FLAG_HSERDY) != RESET)
 8002552:	e005      	b.n	8002560 <HAL_RCC_OscConfig+0x6c>
        {
          if ((HAL_GetTick() - tickstart) > HSE_TIMEOUT_VALUE)
 8002554:	f7ff fe18 	bl	8002188 <HAL_GetTick>
 8002558:	1b80      	subs	r0, r0, r6
 800255a:	2864      	cmp	r0, #100	; 0x64
 800255c:	f200 8101 	bhi.w	8002762 <HAL_RCC_OscConfig+0x26e>
        while (__HAL_RCC_GET_FLAG(RCC_FLAG_HSERDY) != RESET)
 8002560:	682b      	ldr	r3, [r5, #0]
 8002562:	039b      	lsls	r3, r3, #14
 8002564:	d4f6      	bmi.n	8002554 <HAL_RCC_OscConfig+0x60>
        }
      }
    }
  }
  /*----------------------------- HSI Configuration --------------------------*/
  if (((RCC_OscInitStruct->OscillatorType) & RCC_OSCILLATORTYPE_HSI) == RCC_OSCILLATORTYPE_HSI)
 8002566:	6823      	ldr	r3, [r4, #0]
 8002568:	079f      	lsls	r7, r3, #30
 800256a:	d528      	bpl.n	80025be <HAL_RCC_OscConfig+0xca>
    /* Check the parameters */
    assert_param(IS_RCC_HSI(RCC_OscInitStruct->HSIState));
    assert_param(IS_RCC_CALIBRATION_VALUE(RCC_OscInitStruct->HSICalibrationValue));

    /* Check if HSI is used as system clock or as PLL source when PLL is selected as system clock */
    if ((__HAL_RCC_GET_SYSCLK_SOURCE() == RCC_CFGR_SWS_HSI) || \
 800256c:	4a85      	ldr	r2, [pc, #532]	; (8002784 <HAL_RCC_OscConfig+0x290>)
 800256e:	6891      	ldr	r1, [r2, #8]
 8002570:	f011 0f0c 	tst.w	r1, #12
 8002574:	f000 8090 	beq.w	8002698 <HAL_RCC_OscConfig+0x1a4>
        ((__HAL_RCC_GET_SYSCLK_SOURCE() == RCC_CFGR_SWS_PLL) && ((RCC->PLLCFGR & RCC_PLLCFGR_PLLSRC) == RCC_PLLCFGR_PLLSRC_HSI)))
 8002578:	6891      	ldr	r1, [r2, #8]
 800257a:	f001 010c 	and.w	r1, r1, #12
    if ((__HAL_RCC_GET_SYSCLK_SOURCE() == RCC_CFGR_SWS_HSI) || \
 800257e:	2908      	cmp	r1, #8
 8002580:	f000 8086 	beq.w	8002690 <HAL_RCC_OscConfig+0x19c>
      }
    }
    else
    {
      /* Check the HSI State */
      if ((RCC_OscInitStruct->HSIState) != RCC_HSI_OFF)
 8002584:	68e3      	ldr	r3, [r4, #12]
 8002586:	2b00      	cmp	r3, #0
 8002588:	f000 810e 	beq.w	80027a8 <HAL_RCC_OscConfig+0x2b4>
      {
        /* Enable the Internal High Speed oscillator (HSI). */
        __HAL_RCC_HSI_ENABLE();
 800258c:	4b7e      	ldr	r3, [pc, #504]	; (8002788 <HAL_RCC_OscConfig+0x294>)

        /* Get Start Tick*/
        tickstart = HAL_GetTick();

        /* Wait till HSI is ready */
        while (__HAL_RCC_GET_FLAG(RCC_FLAG_HSIRDY) == RESET)
 800258e:	4e7d      	ldr	r6, [pc, #500]	; (8002784 <HAL_RCC_OscConfig+0x290>)
        __HAL_RCC_HSI_ENABLE();
 8002590:	2201      	movs	r2, #1
 8002592:	601a      	str	r2, [r3, #0]
        tickstart = HAL_GetTick();
 8002594:	f7ff fdf8 	bl	8002188 <HAL_GetTick>
 8002598:	4605      	mov	r5, r0
        while (__HAL_RCC_GET_FLAG(RCC_FLAG_HSIRDY) == RESET)
 800259a:	e005      	b.n	80025a8 <HAL_RCC_OscConfig+0xb4>
        {
          if ((HAL_GetTick() - tickstart) > HSI_TIMEOUT_VALUE)
 800259c:	f7ff fdf4 	bl	8002188 <HAL_GetTick>
 80025a0:	1b40      	subs	r0, r0, r5
 80025a2:	2802      	cmp	r0, #2
 80025a4:	f200 80dd 	bhi.w	8002762 <HAL_RCC_OscConfig+0x26e>
        while (__HAL_RCC_GET_FLAG(RCC_FLAG_HSIRDY) == RESET)
 80025a8:	6833      	ldr	r3, [r6, #0]
 80025aa:	0798      	lsls	r0, r3, #30
 80025ac:	d5f6      	bpl.n	800259c <HAL_RCC_OscConfig+0xa8>
            return HAL_TIMEOUT;
          }
        }

        /* Adjusts the Internal High Speed oscillator (HSI) calibration value. */
        __HAL_RCC_HSI_CALIBRATIONVALUE_ADJUST(RCC_OscInitStruct->HSICalibrationValue);
 80025ae:	6833      	ldr	r3, [r6, #0]
 80025b0:	6922      	ldr	r2, [r4, #16]
 80025b2:	f023 03f8 	bic.w	r3, r3, #248	; 0xf8
 80025b6:	ea43 03c2 	orr.w	r3, r3, r2, lsl #3
 80025ba:	6033      	str	r3, [r6, #0]
        }
      }
    }
  }
  /*------------------------------ LSI Configuration -------------------------*/
  if (((RCC_OscInitStruct->OscillatorType) & RCC_OSCILLATORTYPE_LSI) == RCC_OSCILLATORTYPE_LSI)
 80025bc:	6823      	ldr	r3, [r4, #0]
 80025be:	071a      	lsls	r2, r3, #28
 80025c0:	d451      	bmi.n	8002666 <HAL_RCC_OscConfig+0x172>
        }
      }
    }
  }
  /*------------------------------ LSE Configuration -------------------------*/
  if (((RCC_OscInitStruct->OscillatorType) & RCC_OSCILLATORTYPE_LSE) == RCC_OSCILLATORTYPE_LSE)
 80025c2:	0758      	lsls	r0, r3, #29
 80025c4:	d52f      	bpl.n	8002626 <HAL_RCC_OscConfig+0x132>
    /* Check the parameters */
    assert_param(IS_RCC_LSE(RCC_OscInitStruct->LSEState));

    /* Update LSE configuration in Backup Domain control register    */
    /* Requires to enable write access to Backup Domain of necessary */
    if (__HAL_RCC_PWR_IS_CLK_DISABLED())
 80025c6:	4a6f      	ldr	r2, [pc, #444]	; (8002784 <HAL_RCC_OscConfig+0x290>)
 80025c8:	6c13      	ldr	r3, [r2, #64]	; 0x40
 80025ca:	f013 5380 	ands.w	r3, r3, #268435456	; 0x10000000
 80025ce:	d07f      	beq.n	80026d0 <HAL_RCC_OscConfig+0x1dc>
    FlagStatus       pwrclkchanged = RESET;
 80025d0:	2500      	movs	r5, #0
    {
      __HAL_RCC_PWR_CLK_ENABLE();
      pwrclkchanged = SET;
    }

    if (HAL_IS_BIT_CLR(PWR->CR, PWR_CR_DBP))
 80025d2:	4e6e      	ldr	r6, [pc, #440]	; (800278c <HAL_RCC_OscConfig+0x298>)
 80025d4:	6833      	ldr	r3, [r6, #0]
 80025d6:	05d9      	lsls	r1, r3, #23
 80025d8:	f140 80b3 	bpl.w	8002742 <HAL_RCC_OscConfig+0x24e>
        }
      }
    }

    /* Set the new LSE configuration -----------------------------------------*/
    __HAL_RCC_LSE_CONFIG(RCC_OscInitStruct->LSEState);
 80025dc:	68a3      	ldr	r3, [r4, #8]
 80025de:	2b01      	cmp	r3, #1
 80025e0:	f000 80c3 	beq.w	800276a <HAL_RCC_OscConfig+0x276>
 80025e4:	2b05      	cmp	r3, #5
 80025e6:	f000 812c 	beq.w	8002842 <HAL_RCC_OscConfig+0x34e>
 80025ea:	4e66      	ldr	r6, [pc, #408]	; (8002784 <HAL_RCC_OscConfig+0x290>)
 80025ec:	6f32      	ldr	r2, [r6, #112]	; 0x70
 80025ee:	f022 0201 	bic.w	r2, r2, #1
 80025f2:	6732      	str	r2, [r6, #112]	; 0x70
 80025f4:	6f32      	ldr	r2, [r6, #112]	; 0x70
 80025f6:	f022 0204 	bic.w	r2, r2, #4
 80025fa:	6732      	str	r2, [r6, #112]	; 0x70
    /* Check the LSE State */
    if ((RCC_OscInitStruct->LSEState) != RCC_LSE_OFF)
 80025fc:	2b00      	cmp	r3, #0
 80025fe:	f040 80b9 	bne.w	8002774 <HAL_RCC_OscConfig+0x280>
      }
    }
    else
    {
      /* Get Start Tick */
      tickstart = HAL_GetTick();
 8002602:	f7ff fdc1 	bl	8002188 <HAL_GetTick>

      /* Wait till LSE is ready */
      while (__HAL_RCC_GET_FLAG(RCC_FLAG_LSERDY) != RESET)
      {
        if ((HAL_GetTick() - tickstart) > RCC_LSE_TIMEOUT_VALUE)
 8002606:	f241 3888 	movw	r8, #5000	; 0x1388
      tickstart = HAL_GetTick();
 800260a:	4607      	mov	r7, r0
      while (__HAL_RCC_GET_FLAG(RCC_FLAG_LSERDY) != RESET)
 800260c:	e005      	b.n	800261a <HAL_RCC_OscConfig+0x126>
        if ((HAL_GetTick() - tickstart) > RCC_LSE_TIMEOUT_VALUE)
 800260e:	f7ff fdbb 	bl	8002188 <HAL_GetTick>
 8002612:	1bc0      	subs	r0, r0, r7
 8002614:	4540      	cmp	r0, r8
 8002616:	f200 80a4 	bhi.w	8002762 <HAL_RCC_OscConfig+0x26e>
      while (__HAL_RCC_GET_FLAG(RCC_FLAG_LSERDY) != RESET)
 800261a:	6f33      	ldr	r3, [r6, #112]	; 0x70
 800261c:	0798      	lsls	r0, r3, #30
 800261e:	d4f6      	bmi.n	800260e <HAL_RCC_OscConfig+0x11a>
        }
      }
    }

    /* Restore clock configuration if changed */
    if (pwrclkchanged == SET)
 8002620:	2d00      	cmp	r5, #0
 8002622:	f040 8106 	bne.w	8002832 <HAL_RCC_OscConfig+0x33e>
    }
  }
  /*-------------------------------- PLL Configuration -----------------------*/
  /* Check the parameters */
  assert_param(IS_RCC_PLL(RCC_OscInitStruct->PLL.PLLState));
  if ((RCC_OscInitStruct->PLL.PLLState) != RCC_PLL_NONE)
 8002626:	69a0      	ldr	r0, [r4, #24]
 8002628:	b1c8      	cbz	r0, 800265e <HAL_RCC_OscConfig+0x16a>
  {
    /* Check if the PLL is used as system clock or not */
    if (__HAL_RCC_GET_SYSCLK_SOURCE() != RCC_CFGR_SWS_PLL)
 800262a:	4d56      	ldr	r5, [pc, #344]	; (8002784 <HAL_RCC_OscConfig+0x290>)
 800262c:	68ab      	ldr	r3, [r5, #8]
 800262e:	f003 030c 	and.w	r3, r3, #12
 8002632:	2b08      	cmp	r3, #8
 8002634:	f000 80c9 	beq.w	80027ca <HAL_RCC_OscConfig+0x2d6>
        assert_param(IS_RCC_PLLN_VALUE(RCC_OscInitStruct->PLL.PLLN));
        assert_param(IS_RCC_PLLP_VALUE(RCC_OscInitStruct->PLL.PLLP));
        assert_param(IS_RCC_PLLQ_VALUE(RCC_OscInitStruct->PLL.PLLQ));

        /* Disable the main PLL. */
        __HAL_RCC_PLL_DISABLE();
 8002638:	4b53      	ldr	r3, [pc, #332]	; (8002788 <HAL_RCC_OscConfig+0x294>)
 800263a:	2200      	movs	r2, #0
      if ((RCC_OscInitStruct->PLL.PLLState) == RCC_PLL_ON)
 800263c:	2802      	cmp	r0, #2
        __HAL_RCC_PLL_DISABLE();
 800263e:	661a      	str	r2, [r3, #96]	; 0x60
      if ((RCC_OscInitStruct->PLL.PLLState) == RCC_PLL_ON)
 8002640:	f000 8109 	beq.w	8002856 <HAL_RCC_OscConfig+0x362>
      {
        /* Disable the main PLL. */
        __HAL_RCC_PLL_DISABLE();

        /* Get Start Tick */
        tickstart = HAL_GetTick();
 8002644:	f7ff fda0 	bl	8002188 <HAL_GetTick>
 8002648:	4604      	mov	r4, r0

        /* Wait till PLL is disabled */
        while (__HAL_RCC_GET_FLAG(RCC_FLAG_PLLRDY) != RESET)
 800264a:	e005      	b.n	8002658 <HAL_RCC_OscConfig+0x164>
        {
          if ((HAL_GetTick() - tickstart) > PLL_TIMEOUT_VALUE)
 800264c:	f7ff fd9c 	bl	8002188 <HAL_GetTick>
 8002650:	1b00      	subs	r0, r0, r4
 8002652:	2802      	cmp	r0, #2
 8002654:	f200 8085 	bhi.w	8002762 <HAL_RCC_OscConfig+0x26e>
        while (__HAL_RCC_GET_FLAG(RCC_FLAG_PLLRDY) != RESET)
 8002658:	682b      	ldr	r3, [r5, #0]
 800265a:	019b      	lsls	r3, r3, #6
 800265c:	d4f6      	bmi.n	800264c <HAL_RCC_OscConfig+0x158>
          return HAL_ERROR;
        }
      }
    }
  }
  return HAL_OK;
 800265e:	2000      	movs	r0, #0
}
 8002660:	b002      	add	sp, #8
 8002662:	e8bd 81f0 	ldmia.w	sp!, {r4, r5, r6, r7, r8, pc}
    if ((RCC_OscInitStruct->LSIState) != RCC_LSI_OFF)
 8002666:	6963      	ldr	r3, [r4, #20]
 8002668:	b30b      	cbz	r3, 80026ae <HAL_RCC_OscConfig+0x1ba>
      __HAL_RCC_LSI_ENABLE();
 800266a:	4b47      	ldr	r3, [pc, #284]	; (8002788 <HAL_RCC_OscConfig+0x294>)
      while (__HAL_RCC_GET_FLAG(RCC_FLAG_LSIRDY) == RESET)
 800266c:	4e45      	ldr	r6, [pc, #276]	; (8002784 <HAL_RCC_OscConfig+0x290>)
      __HAL_RCC_LSI_ENABLE();
 800266e:	2201      	movs	r2, #1
 8002670:	f8c3 2e80 	str.w	r2, [r3, #3712]	; 0xe80
      tickstart = HAL_GetTick();
 8002674:	f7ff fd88 	bl	8002188 <HAL_GetTick>
 8002678:	4605      	mov	r5, r0
      while (__HAL_RCC_GET_FLAG(RCC_FLAG_LSIRDY) == RESET)
 800267a:	e004      	b.n	8002686 <HAL_RCC_OscConfig+0x192>
        if ((HAL_GetTick() - tickstart) > LSI_TIMEOUT_VALUE)
 800267c:	f7ff fd84 	bl	8002188 <HAL_GetTick>
 8002680:	1b40      	subs	r0, r0, r5
 8002682:	2802      	cmp	r0, #2
 8002684:	d86d      	bhi.n	8002762 <HAL_RCC_OscConfig+0x26e>
      while (__HAL_RCC_GET_FLAG(RCC_FLAG_LSIRDY) == RESET)
 8002686:	6f73      	ldr	r3, [r6, #116]	; 0x74
 8002688:	079b      	lsls	r3, r3, #30
 800268a:	d5f7      	bpl.n	800267c <HAL_RCC_OscConfig+0x188>
  if (((RCC_OscInitStruct->OscillatorType) & RCC_OSCILLATORTYPE_LSE) == RCC_OSCILLATORTYPE_LSE)
 800268c:	6823      	ldr	r3, [r4, #0]
 800268e:	e798      	b.n	80025c2 <HAL_RCC_OscConfig+0xce>
        ((__HAL_RCC_GET_SYSCLK_SOURCE() == RCC_CFGR_SWS_PLL) && ((RCC->PLLCFGR & RCC_PLLCFGR_PLLSRC) == RCC_PLLCFGR_PLLSRC_HSI)))
 8002690:	6852      	ldr	r2, [r2, #4]
 8002692:	0256      	lsls	r6, r2, #9
 8002694:	f53f af76 	bmi.w	8002584 <HAL_RCC_OscConfig+0x90>
      if ((__HAL_RCC_GET_FLAG(RCC_FLAG_HSIRDY) != RESET) && (RCC_OscInitStruct->HSIState != RCC_HSI_ON))
 8002698:	4a3a      	ldr	r2, [pc, #232]	; (8002784 <HAL_RCC_OscConfig+0x290>)
 800269a:	6812      	ldr	r2, [r2, #0]
 800269c:	0795      	lsls	r5, r2, #30
 800269e:	d544      	bpl.n	800272a <HAL_RCC_OscConfig+0x236>
 80026a0:	68e2      	ldr	r2, [r4, #12]
 80026a2:	2a01      	cmp	r2, #1
 80026a4:	d041      	beq.n	800272a <HAL_RCC_OscConfig+0x236>
        return HAL_ERROR;
 80026a6:	2001      	movs	r0, #1
}
 80026a8:	b002      	add	sp, #8
 80026aa:	e8bd 81f0 	ldmia.w	sp!, {r4, r5, r6, r7, r8, pc}
      __HAL_RCC_LSI_DISABLE();
 80026ae:	4a36      	ldr	r2, [pc, #216]	; (8002788 <HAL_RCC_OscConfig+0x294>)
      while (__HAL_RCC_GET_FLAG(RCC_FLAG_LSIRDY) != RESET)
 80026b0:	4e34      	ldr	r6, [pc, #208]	; (8002784 <HAL_RCC_OscConfig+0x290>)
      __HAL_RCC_LSI_DISABLE();
 80026b2:	f8c2 3e80 	str.w	r3, [r2, #3712]	; 0xe80
      tickstart = HAL_GetTick();
 80026b6:	f7ff fd67 	bl	8002188 <HAL_GetTick>
 80026ba:	4605      	mov	r5, r0
      while (__HAL_RCC_GET_FLAG(RCC_FLAG_LSIRDY) != RESET)
 80026bc:	e004      	b.n	80026c8 <HAL_RCC_OscConfig+0x1d4>
        if ((HAL_GetTick() - tickstart) > LSI_TIMEOUT_VALUE)
 80026be:	f7ff fd63 	bl	8002188 <HAL_GetTick>
 80026c2:	1b40      	subs	r0, r0, r5
 80026c4:	2802      	cmp	r0, #2
 80026c6:	d84c      	bhi.n	8002762 <HAL_RCC_OscConfig+0x26e>
      while (__HAL_RCC_GET_FLAG(RCC_FLAG_LSIRDY) != RESET)
 80026c8:	6f73      	ldr	r3, [r6, #116]	; 0x74
 80026ca:	079f      	lsls	r7, r3, #30
 80026cc:	d4f7      	bmi.n	80026be <HAL_RCC_OscConfig+0x1ca>
 80026ce:	e7dd      	b.n	800268c <HAL_RCC_OscConfig+0x198>
      __HAL_RCC_PWR_CLK_ENABLE();
 80026d0:	9301      	str	r3, [sp, #4]
 80026d2:	6c13      	ldr	r3, [r2, #64]	; 0x40
 80026d4:	f043 5380 	orr.w	r3, r3, #268435456	; 0x10000000
 80026d8:	6413      	str	r3, [r2, #64]	; 0x40
 80026da:	6c13      	ldr	r3, [r2, #64]	; 0x40
 80026dc:	f003 5380 	and.w	r3, r3, #268435456	; 0x10000000
 80026e0:	9301      	str	r3, [sp, #4]
 80026e2:	9b01      	ldr	r3, [sp, #4]
      pwrclkchanged = SET;
 80026e4:	2501      	movs	r5, #1
 80026e6:	e774      	b.n	80025d2 <HAL_RCC_OscConfig+0xde>
        ((__HAL_RCC_GET_SYSCLK_SOURCE() == RCC_CFGR_SWS_PLL) && ((RCC->PLLCFGR & RCC_PLLCFGR_PLLSRC) == RCC_PLLCFGR_PLLSRC_HSE)))
 80026e8:	684a      	ldr	r2, [r1, #4]
 80026ea:	0250      	lsls	r0, r2, #9
 80026ec:	f57f af19 	bpl.w	8002522 <HAL_RCC_OscConfig+0x2e>
      if ((__HAL_RCC_GET_FLAG(RCC_FLAG_HSERDY) != RESET) && (RCC_OscInitStruct->HSEState == RCC_HSE_OFF))
 80026f0:	4a24      	ldr	r2, [pc, #144]	; (8002784 <HAL_RCC_OscConfig+0x290>)
 80026f2:	6812      	ldr	r2, [r2, #0]
 80026f4:	0391      	lsls	r1, r2, #14
 80026f6:	f57f af37 	bpl.w	8002568 <HAL_RCC_OscConfig+0x74>
 80026fa:	6862      	ldr	r2, [r4, #4]
 80026fc:	2a00      	cmp	r2, #0
 80026fe:	f47f af33 	bne.w	8002568 <HAL_RCC_OscConfig+0x74>
 8002702:	e7d0      	b.n	80026a6 <HAL_RCC_OscConfig+0x1b2>
      __HAL_RCC_HSE_CONFIG(RCC_OscInitStruct->HSEState);
 8002704:	4a1f      	ldr	r2, [pc, #124]	; (8002784 <HAL_RCC_OscConfig+0x290>)
 8002706:	6813      	ldr	r3, [r2, #0]
 8002708:	f443 3380 	orr.w	r3, r3, #65536	; 0x10000
 800270c:	6013      	str	r3, [r2, #0]
        tickstart = HAL_GetTick();
 800270e:	f7ff fd3b 	bl	8002188 <HAL_GetTick>
        while (__HAL_RCC_GET_FLAG(RCC_FLAG_HSERDY) == RESET)
 8002712:	4e1c      	ldr	r6, [pc, #112]	; (8002784 <HAL_RCC_OscConfig+0x290>)
        tickstart = HAL_GetTick();
 8002714:	4605      	mov	r5, r0
        while (__HAL_RCC_GET_FLAG(RCC_FLAG_HSERDY) == RESET)
 8002716:	e004      	b.n	8002722 <HAL_RCC_OscConfig+0x22e>
          if ((HAL_GetTick() - tickstart) > HSE_TIMEOUT_VALUE)
 8002718:	f7ff fd36 	bl	8002188 <HAL_GetTick>
 800271c:	1b40      	subs	r0, r0, r5
 800271e:	2864      	cmp	r0, #100	; 0x64
 8002720:	d81f      	bhi.n	8002762 <HAL_RCC_OscConfig+0x26e>
        while (__HAL_RCC_GET_FLAG(RCC_FLAG_HSERDY) == RESET)
 8002722:	6833      	ldr	r3, [r6, #0]
 8002724:	039a      	lsls	r2, r3, #14
 8002726:	d5f7      	bpl.n	8002718 <HAL_RCC_OscConfig+0x224>
 8002728:	e71d      	b.n	8002566 <HAL_RCC_OscConfig+0x72>
        __HAL_RCC_HSI_CALIBRATIONVALUE_ADJUST(RCC_OscInitStruct->HSICalibrationValue);
 800272a:	4916      	ldr	r1, [pc, #88]	; (8002784 <HAL_RCC_OscConfig+0x290>)
 800272c:	6920      	ldr	r0, [r4, #16]
 800272e:	680a      	ldr	r2, [r1, #0]
 8002730:	f022 02f8 	bic.w	r2, r2, #248	; 0xf8
 8002734:	ea42 02c0 	orr.w	r2, r2, r0, lsl #3
 8002738:	600a      	str	r2, [r1, #0]
  if (((RCC_OscInitStruct->OscillatorType) & RCC_OSCILLATORTYPE_LSI) == RCC_OSCILLATORTYPE_LSI)
 800273a:	071a      	lsls	r2, r3, #28
 800273c:	f57f af41 	bpl.w	80025c2 <HAL_RCC_OscConfig+0xce>
 8002740:	e791      	b.n	8002666 <HAL_RCC_OscConfig+0x172>
      SET_BIT(PWR->CR, PWR_CR_DBP);
 8002742:	6833      	ldr	r3, [r6, #0]
 8002744:	f443 7380 	orr.w	r3, r3, #256	; 0x100
 8002748:	6033      	str	r3, [r6, #0]
      tickstart = HAL_GetTick();
 800274a:	f7ff fd1d 	bl	8002188 <HAL_GetTick>
 800274e:	4607      	mov	r7, r0
      while (HAL_IS_BIT_CLR(PWR->CR, PWR_CR_DBP))
 8002750:	6833      	ldr	r3, [r6, #0]
 8002752:	05da      	lsls	r2, r3, #23
 8002754:	f53f af42 	bmi.w	80025dc <HAL_RCC_OscConfig+0xe8>
        if ((HAL_GetTick() - tickstart) > RCC_DBP_TIMEOUT_VALUE)
 8002758:	f7ff fd16 	bl	8002188 <HAL_GetTick>
 800275c:	1bc0      	subs	r0, r0, r7
 800275e:	2802      	cmp	r0, #2
 8002760:	d9f6      	bls.n	8002750 <HAL_RCC_OscConfig+0x25c>
            return HAL_TIMEOUT;
 8002762:	2003      	movs	r0, #3
}
 8002764:	b002      	add	sp, #8
 8002766:	e8bd 81f0 	ldmia.w	sp!, {r4, r5, r6, r7, r8, pc}
    __HAL_RCC_LSE_CONFIG(RCC_OscInitStruct->LSEState);
 800276a:	4a06      	ldr	r2, [pc, #24]	; (8002784 <HAL_RCC_OscConfig+0x290>)
 800276c:	6f13      	ldr	r3, [r2, #112]	; 0x70
 800276e:	f043 0301 	orr.w	r3, r3, #1
 8002772:	6713      	str	r3, [r2, #112]	; 0x70
      tickstart = HAL_GetTick();
 8002774:	f7ff fd08 	bl	8002188 <HAL_GetTick>
      while (__HAL_RCC_GET_FLAG(RCC_FLAG_LSERDY) == RESET)
 8002778:	4f02      	ldr	r7, [pc, #8]	; (8002784 <HAL_RCC_OscConfig+0x290>)
      tickstart = HAL_GetTick();
 800277a:	4606      	mov	r6, r0
        if ((HAL_GetTick() - tickstart) > RCC_LSE_TIMEOUT_VALUE)
 800277c:	f241 3888 	movw	r8, #5000	; 0x1388
      while (__HAL_RCC_GET_FLAG(RCC_FLAG_LSERDY) == RESET)
 8002780:	e00b      	b.n	800279a <HAL_RCC_OscConfig+0x2a6>
 8002782:	bf00      	nop
 8002784:	40023800 	.word	0x40023800
 8002788:	42470000 	.word	0x42470000
 800278c:	40007000 	.word	0x40007000
        if ((HAL_GetTick() - tickstart) > RCC_LSE_TIMEOUT_VALUE)
 8002790:	f7ff fcfa 	bl	8002188 <HAL_GetTick>
 8002794:	1b80      	subs	r0, r0, r6
 8002796:	4540      	cmp	r0, r8
 8002798:	d8e3      	bhi.n	8002762 <HAL_RCC_OscConfig+0x26e>
      while (__HAL_RCC_GET_FLAG(RCC_FLAG_LSERDY) == RESET)
 800279a:	6f3b      	ldr	r3, [r7, #112]	; 0x70
 800279c:	079b      	lsls	r3, r3, #30
 800279e:	d5f7      	bpl.n	8002790 <HAL_RCC_OscConfig+0x29c>
    if (pwrclkchanged == SET)
 80027a0:	2d00      	cmp	r5, #0
 80027a2:	f43f af40 	beq.w	8002626 <HAL_RCC_OscConfig+0x132>
 80027a6:	e044      	b.n	8002832 <HAL_RCC_OscConfig+0x33e>
        __HAL_RCC_HSI_DISABLE();
 80027a8:	4a42      	ldr	r2, [pc, #264]	; (80028b4 <HAL_RCC_OscConfig+0x3c0>)
        while (__HAL_RCC_GET_FLAG(RCC_FLAG_HSIRDY) != RESET)
 80027aa:	4e43      	ldr	r6, [pc, #268]	; (80028b8 <HAL_RCC_OscConfig+0x3c4>)
        __HAL_RCC_HSI_DISABLE();
 80027ac:	6013      	str	r3, [r2, #0]
        tickstart = HAL_GetTick();
 80027ae:	f7ff fceb 	bl	8002188 <HAL_GetTick>
 80027b2:	4605      	mov	r5, r0
        while (__HAL_RCC_GET_FLAG(RCC_FLAG_HSIRDY) != RESET)
 80027b4:	e004      	b.n	80027c0 <HAL_RCC_OscConfig+0x2cc>
          if ((HAL_GetTick() - tickstart) > HSI_TIMEOUT_VALUE)
 80027b6:	f7ff fce7 	bl	8002188 <HAL_GetTick>
 80027ba:	1b40      	subs	r0, r0, r5
 80027bc:	2802      	cmp	r0, #2
 80027be:	d8d0      	bhi.n	8002762 <HAL_RCC_OscConfig+0x26e>
        while (__HAL_RCC_GET_FLAG(RCC_FLAG_HSIRDY) != RESET)
 80027c0:	6833      	ldr	r3, [r6, #0]
 80027c2:	0799      	lsls	r1, r3, #30
 80027c4:	d4f7      	bmi.n	80027b6 <HAL_RCC_OscConfig+0x2c2>
  if (((RCC_OscInitStruct->OscillatorType) & RCC_OSCILLATORTYPE_LSI) == RCC_OSCILLATORTYPE_LSI)
 80027c6:	6823      	ldr	r3, [r4, #0]
 80027c8:	e6f9      	b.n	80025be <HAL_RCC_OscConfig+0xca>
      if ((RCC_OscInitStruct->PLL.PLLState) == RCC_PLL_OFF)
 80027ca:	2801      	cmp	r0, #1
 80027cc:	f43f af48 	beq.w	8002660 <HAL_RCC_OscConfig+0x16c>
        pll_config = RCC->PLLCFGR;
 80027d0:	686b      	ldr	r3, [r5, #4]
        if (((RCC_OscInitStruct->PLL.PLLState) == RCC_PLL_OFF) ||
 80027d2:	69e2      	ldr	r2, [r4, #28]
            (READ_BIT(pll_config, RCC_PLLCFGR_PLLSRC) != RCC_OscInitStruct->PLL.PLLSource) ||
 80027d4:	f403 0180 	and.w	r1, r3, #4194304	; 0x400000
        if (((RCC_OscInitStruct->PLL.PLLState) == RCC_PLL_OFF) ||
 80027d8:	4291      	cmp	r1, r2
 80027da:	f47f af64 	bne.w	80026a6 <HAL_RCC_OscConfig+0x1b2>
            (READ_BIT(pll_config, RCC_PLLCFGR_PLLSRC) != RCC_OscInitStruct->PLL.PLLSource) ||
 80027de:	6a22      	ldr	r2, [r4, #32]
            (READ_BIT(pll_config, RCC_PLLCFGR_PLLM) != (RCC_OscInitStruct->PLL.PLLM) << RCC_PLLCFGR_PLLM_Pos) ||
 80027e0:	f003 013f 	and.w	r1, r3, #63	; 0x3f
            (READ_BIT(pll_config, RCC_PLLCFGR_PLLSRC) != RCC_OscInitStruct->PLL.PLLSource) ||
 80027e4:	4291      	cmp	r1, r2
 80027e6:	f47f af5e 	bne.w	80026a6 <HAL_RCC_OscConfig+0x1b2>
            (READ_BIT(pll_config, RCC_PLLCFGR_PLLN) != (RCC_OscInitStruct->PLL.PLLN) << RCC_PLLCFGR_PLLN_Pos) ||
 80027ea:	6a61      	ldr	r1, [r4, #36]	; 0x24
 80027ec:	f647 72c0 	movw	r2, #32704	; 0x7fc0
 80027f0:	401a      	ands	r2, r3
            (READ_BIT(pll_config, RCC_PLLCFGR_PLLM) != (RCC_OscInitStruct->PLL.PLLM) << RCC_PLLCFGR_PLLM_Pos) ||
 80027f2:	ebb2 1f81 	cmp.w	r2, r1, lsl #6
 80027f6:	f47f af56 	bne.w	80026a6 <HAL_RCC_OscConfig+0x1b2>
            (READ_BIT(pll_config, RCC_PLLCFGR_PLLP) != (((RCC_OscInitStruct->PLL.PLLP >> 1U) - 1U)) << RCC_PLLCFGR_PLLP_Pos) ||
 80027fa:	6aa2      	ldr	r2, [r4, #40]	; 0x28
 80027fc:	0852      	lsrs	r2, r2, #1
 80027fe:	f403 3140 	and.w	r1, r3, #196608	; 0x30000
 8002802:	3a01      	subs	r2, #1
            (READ_BIT(pll_config, RCC_PLLCFGR_PLLN) != (RCC_OscInitStruct->PLL.PLLN) << RCC_PLLCFGR_PLLN_Pos) ||
 8002804:	ebb1 4f02 	cmp.w	r1, r2, lsl #16
 8002808:	f47f af4d 	bne.w	80026a6 <HAL_RCC_OscConfig+0x1b2>
            (READ_BIT(pll_config, RCC_PLLCFGR_PLLQ) != (RCC_OscInitStruct->PLL.PLLQ << RCC_PLLCFGR_PLLQ_Pos)))
 800280c:	6ae2      	ldr	r2, [r4, #44]	; 0x2c
 800280e:	f003 6370 	and.w	r3, r3, #251658240	; 0xf000000
            (READ_BIT(pll_config, RCC_PLLCFGR_PLLP) != (((RCC_OscInitStruct->PLL.PLLP >> 1U) - 1U)) << RCC_PLLCFGR_PLLP_Pos) ||
 8002812:	ebb3 6f02 	cmp.w	r3, r2, lsl #24
    return HAL_ERROR;
 8002816:	bf14      	ite	ne
 8002818:	2001      	movne	r0, #1
 800281a:	2000      	moveq	r0, #0
 800281c:	e720      	b.n	8002660 <HAL_RCC_OscConfig+0x16c>
      __HAL_RCC_HSE_CONFIG(RCC_OscInitStruct->HSEState);
 800281e:	4b26      	ldr	r3, [pc, #152]	; (80028b8 <HAL_RCC_OscConfig+0x3c4>)
 8002820:	681a      	ldr	r2, [r3, #0]
 8002822:	f442 2280 	orr.w	r2, r2, #262144	; 0x40000
 8002826:	601a      	str	r2, [r3, #0]
 8002828:	681a      	ldr	r2, [r3, #0]
 800282a:	f442 3280 	orr.w	r2, r2, #65536	; 0x10000
 800282e:	601a      	str	r2, [r3, #0]
      if ((RCC_OscInitStruct->HSEState) != RCC_HSE_OFF)
 8002830:	e76d      	b.n	800270e <HAL_RCC_OscConfig+0x21a>
      __HAL_RCC_PWR_CLK_DISABLE();
 8002832:	4a21      	ldr	r2, [pc, #132]	; (80028b8 <HAL_RCC_OscConfig+0x3c4>)
 8002834:	6c13      	ldr	r3, [r2, #64]	; 0x40
 8002836:	f023 5380 	bic.w	r3, r3, #268435456	; 0x10000000
 800283a:	6413      	str	r3, [r2, #64]	; 0x40
 800283c:	e6f3      	b.n	8002626 <HAL_RCC_OscConfig+0x132>
    return HAL_ERROR;
 800283e:	2001      	movs	r0, #1
}
 8002840:	4770      	bx	lr
    __HAL_RCC_LSE_CONFIG(RCC_OscInitStruct->LSEState);
 8002842:	4b1d      	ldr	r3, [pc, #116]	; (80028b8 <HAL_RCC_OscConfig+0x3c4>)
 8002844:	6f1a      	ldr	r2, [r3, #112]	; 0x70
 8002846:	f042 0204 	orr.w	r2, r2, #4
 800284a:	671a      	str	r2, [r3, #112]	; 0x70
 800284c:	6f1a      	ldr	r2, [r3, #112]	; 0x70
 800284e:	f042 0201 	orr.w	r2, r2, #1
 8002852:	671a      	str	r2, [r3, #112]	; 0x70
    if ((RCC_OscInitStruct->LSEState) != RCC_LSE_OFF)
 8002854:	e78e      	b.n	8002774 <HAL_RCC_OscConfig+0x280>
        tickstart = HAL_GetTick();
 8002856:	f7ff fc97 	bl	8002188 <HAL_GetTick>
 800285a:	4606      	mov	r6, r0
        while (__HAL_RCC_GET_FLAG(RCC_FLAG_PLLRDY) != RESET)
 800285c:	e005      	b.n	800286a <HAL_RCC_OscConfig+0x376>
          if ((HAL_GetTick() - tickstart) > PLL_TIMEOUT_VALUE)
 800285e:	f7ff fc93 	bl	8002188 <HAL_GetTick>
 8002862:	1b80      	subs	r0, r0, r6
 8002864:	2802      	cmp	r0, #2
 8002866:	f63f af7c 	bhi.w	8002762 <HAL_RCC_OscConfig+0x26e>
        while (__HAL_RCC_GET_FLAG(RCC_FLAG_PLLRDY) != RESET)
 800286a:	682b      	ldr	r3, [r5, #0]
 800286c:	0199      	lsls	r1, r3, #6
 800286e:	d4f6      	bmi.n	800285e <HAL_RCC_OscConfig+0x36a>
        WRITE_REG(RCC->PLLCFGR, (RCC_OscInitStruct->PLL.PLLSource                                            | \
 8002870:	e9d4 3107 	ldrd	r3, r1, [r4, #28]
 8002874:	6a62      	ldr	r2, [r4, #36]	; 0x24
 8002876:	430b      	orrs	r3, r1
 8002878:	ea43 1382 	orr.w	r3, r3, r2, lsl #6
 800287c:	e9d4 210a 	ldrd	r2, r1, [r4, #40]	; 0x28
 8002880:	0852      	lsrs	r2, r2, #1
 8002882:	ea43 6301 	orr.w	r3, r3, r1, lsl #24
 8002886:	3a01      	subs	r2, #1
        __HAL_RCC_PLL_ENABLE();
 8002888:	490a      	ldr	r1, [pc, #40]	; (80028b4 <HAL_RCC_OscConfig+0x3c0>)
        WRITE_REG(RCC->PLLCFGR, (RCC_OscInitStruct->PLL.PLLSource                                            | \
 800288a:	ea43 4302 	orr.w	r3, r3, r2, lsl #16
        __HAL_RCC_PLL_ENABLE();
 800288e:	2201      	movs	r2, #1
        WRITE_REG(RCC->PLLCFGR, (RCC_OscInitStruct->PLL.PLLSource                                            | \
 8002890:	606b      	str	r3, [r5, #4]
        __HAL_RCC_PLL_ENABLE();
 8002892:	660a      	str	r2, [r1, #96]	; 0x60
        tickstart = HAL_GetTick();
 8002894:	f7ff fc78 	bl	8002188 <HAL_GetTick>
        while (__HAL_RCC_GET_FLAG(RCC_FLAG_PLLRDY) == RESET)
 8002898:	4d07      	ldr	r5, [pc, #28]	; (80028b8 <HAL_RCC_OscConfig+0x3c4>)
        tickstart = HAL_GetTick();
 800289a:	4604      	mov	r4, r0
        while (__HAL_RCC_GET_FLAG(RCC_FLAG_PLLRDY) == RESET)
 800289c:	e005      	b.n	80028aa <HAL_RCC_OscConfig+0x3b6>
          if ((HAL_GetTick() - tickstart) > PLL_TIMEOUT_VALUE)
 800289e:	f7ff fc73 	bl	8002188 <HAL_GetTick>
 80028a2:	1b00      	subs	r0, r0, r4
 80028a4:	2802      	cmp	r0, #2
 80028a6:	f63f af5c 	bhi.w	8002762 <HAL_RCC_OscConfig+0x26e>
        while (__HAL_RCC_GET_FLAG(RCC_FLAG_PLLRDY) == RESET)
 80028aa:	682b      	ldr	r3, [r5, #0]
 80028ac:	019a      	lsls	r2, r3, #6
 80028ae:	d5f6      	bpl.n	800289e <HAL_RCC_OscConfig+0x3aa>
 80028b0:	e6d5      	b.n	800265e <HAL_RCC_OscConfig+0x16a>
 80028b2:	bf00      	nop
 80028b4:	42470000 	.word	0x42470000
 80028b8:	40023800 	.word	0x40023800

080028bc <HAL_RCC_GetSysClockFreq>:
  uint32_t pllvco = 0U;
  uint32_t pllp = 0U;
  uint32_t sysclockfreq = 0U;

  /* Get SYSCLK source -------------------------------------------------------*/
  switch (RCC->CFGR & RCC_CFGR_SWS)
 80028bc:	4916      	ldr	r1, [pc, #88]	; (8002918 <HAL_RCC_GetSysClockFreq+0x5c>)
{
 80028be:	b508      	push	{r3, lr}
  switch (RCC->CFGR & RCC_CFGR_SWS)
 80028c0:	688b      	ldr	r3, [r1, #8]
 80028c2:	f003 030c 	and.w	r3, r3, #12
 80028c6:	2b04      	cmp	r3, #4
 80028c8:	d01b      	beq.n	8002902 <HAL_RCC_GetSysClockFreq+0x46>
 80028ca:	2b08      	cmp	r3, #8
 80028cc:	d117      	bne.n	80028fe <HAL_RCC_GetSysClockFreq+0x42>
    }
    case RCC_CFGR_SWS_PLL:  /* PLL used as system clock  source */
    {
      /* PLL_VCO = (HSE_VALUE or HSI_VALUE / PLLM) * PLLN
      SYSCLK = PLL_VCO / PLLP */
      pllm = RCC->PLLCFGR & RCC_PLLCFGR_PLLM;
 80028ce:	684a      	ldr	r2, [r1, #4]
      if (__HAL_RCC_GET_PLL_OSCSOURCE() != RCC_PLLSOURCE_HSI)
 80028d0:	684b      	ldr	r3, [r1, #4]
      {
        /* HSE used as PLL clock source */
        pllvco = (uint32_t)((((uint64_t) HSE_VALUE * ((uint64_t)((RCC->PLLCFGR & RCC_PLLCFGR_PLLN) >> RCC_PLLCFGR_PLLN_Pos)))) / (uint64_t)pllm);
 80028d2:	6849      	ldr	r1, [r1, #4]
      if (__HAL_RCC_GET_PLL_OSCSOURCE() != RCC_PLLSOURCE_HSI)
 80028d4:	f413 0380 	ands.w	r3, r3, #4194304	; 0x400000
      pllm = RCC->PLLCFGR & RCC_PLLCFGR_PLLM;
 80028d8:	f002 023f 	and.w	r2, r2, #63	; 0x3f
      if (__HAL_RCC_GET_PLL_OSCSOURCE() != RCC_PLLSOURCE_HSI)
 80028dc:	d113      	bne.n	8002906 <HAL_RCC_GetSysClockFreq+0x4a>
      }
      else
      {
        /* HSI used as PLL clock source */
        pllvco = (uint32_t)((((uint64_t) HSI_VALUE * ((uint64_t)((RCC->PLLCFGR & RCC_PLLCFGR_PLLN) >> RCC_PLLCFGR_PLLN_Pos)))) / (uint64_t)pllm);
 80028de:	480f      	ldr	r0, [pc, #60]	; (800291c <HAL_RCC_GetSysClockFreq+0x60>)
 80028e0:	f3c1 1188 	ubfx	r1, r1, #6, #9
 80028e4:	fba1 0100 	umull	r0, r1, r1, r0
 80028e8:	f7fd fc6e 	bl	80001c8 <__aeabi_uldivmod>
      }
      pllp = ((((RCC->PLLCFGR & RCC_PLLCFGR_PLLP) >> RCC_PLLCFGR_PLLP_Pos) + 1U) * 2U);
 80028ec:	4b0a      	ldr	r3, [pc, #40]	; (8002918 <HAL_RCC_GetSysClockFreq+0x5c>)
 80028ee:	685b      	ldr	r3, [r3, #4]
 80028f0:	f3c3 4301 	ubfx	r3, r3, #16, #2
 80028f4:	3301      	adds	r3, #1
 80028f6:	005b      	lsls	r3, r3, #1

      sysclockfreq = pllvco / pllp;
 80028f8:	fbb0 f0f3 	udiv	r0, r0, r3
      sysclockfreq = HSI_VALUE;
      break;
    }
  }
  return sysclockfreq;
}
 80028fc:	bd08      	pop	{r3, pc}
      sysclockfreq = HSI_VALUE;
 80028fe:	4807      	ldr	r0, [pc, #28]	; (800291c <HAL_RCC_GetSysClockFreq+0x60>)
}
 8002900:	bd08      	pop	{r3, pc}
  switch (RCC->CFGR & RCC_CFGR_SWS)
 8002902:	4807      	ldr	r0, [pc, #28]	; (8002920 <HAL_RCC_GetSysClockFreq+0x64>)
}
 8002904:	bd08      	pop	{r3, pc}
        pllvco = (uint32_t)((((uint64_t) HSE_VALUE * ((uint64_t)((RCC->PLLCFGR & RCC_PLLCFGR_PLLN) >> RCC_PLLCFGR_PLLN_Pos)))) / (uint64_t)pllm);
 8002906:	4806      	ldr	r0, [pc, #24]	; (8002920 <HAL_RCC_GetSysClockFreq+0x64>)
 8002908:	f3c1 1188 	ubfx	r1, r1, #6, #9
 800290c:	2300      	movs	r3, #0
 800290e:	fba1 0100 	umull	r0, r1, r1, r0
 8002912:	f7fd fc59 	bl	80001c8 <__aeabi_uldivmod>
 8002916:	e7e9      	b.n	80028ec <HAL_RCC_GetSysClockFreq+0x30>
 8002918:	40023800 	.word	0x40023800
 800291c:	00f42400 	.word	0x00f42400
 8002920:	017d7840 	.word	0x017d7840

08002924 <HAL_RCC_ClockConfig>:
  if (RCC_ClkInitStruct == NULL)
 8002924:	2800      	cmp	r0, #0
 8002926:	f000 8087 	beq.w	8002a38 <HAL_RCC_ClockConfig+0x114>
  if (FLatency > __HAL_FLASH_GET_LATENCY())
 800292a:	4a48      	ldr	r2, [pc, #288]	; (8002a4c <HAL_RCC_ClockConfig+0x128>)
 800292c:	6813      	ldr	r3, [r2, #0]
 800292e:	f003 0307 	and.w	r3, r3, #7
 8002932:	428b      	cmp	r3, r1
{
 8002934:	e92d 41f0 	stmdb	sp!, {r4, r5, r6, r7, r8, lr}
 8002938:	460d      	mov	r5, r1
 800293a:	4604      	mov	r4, r0
  if (FLatency > __HAL_FLASH_GET_LATENCY())
 800293c:	d209      	bcs.n	8002952 <HAL_RCC_ClockConfig+0x2e>
    __HAL_FLASH_SET_LATENCY(FLatency);
 800293e:	b2cb      	uxtb	r3, r1
 8002940:	7013      	strb	r3, [r2, #0]
    if (__HAL_FLASH_GET_LATENCY() != FLatency)
 8002942:	6813      	ldr	r3, [r2, #0]
 8002944:	f003 0307 	and.w	r3, r3, #7
 8002948:	428b      	cmp	r3, r1
 800294a:	d002      	beq.n	8002952 <HAL_RCC_ClockConfig+0x2e>
    return HAL_ERROR;
 800294c:	2001      	movs	r0, #1
}
 800294e:	e8bd 81f0 	ldmia.w	sp!, {r4, r5, r6, r7, r8, pc}
  if (((RCC_ClkInitStruct->ClockType) & RCC_CLOCKTYPE_HCLK) == RCC_CLOCKTYPE_HCLK)
 8002952:	6823      	ldr	r3, [r4, #0]
 8002954:	0798      	lsls	r0, r3, #30
 8002956:	d514      	bpl.n	8002982 <HAL_RCC_ClockConfig+0x5e>
    if (((RCC_ClkInitStruct->ClockType) & RCC_CLOCKTYPE_PCLK1) == RCC_CLOCKTYPE_PCLK1)
 8002958:	0759      	lsls	r1, r3, #29
 800295a:	d504      	bpl.n	8002966 <HAL_RCC_ClockConfig+0x42>
      MODIFY_REG(RCC->CFGR, RCC_CFGR_PPRE1, RCC_HCLK_DIV16);
 800295c:	493c      	ldr	r1, [pc, #240]	; (8002a50 <HAL_RCC_ClockConfig+0x12c>)
 800295e:	688a      	ldr	r2, [r1, #8]
 8002960:	f442 52e0 	orr.w	r2, r2, #7168	; 0x1c00
 8002964:	608a      	str	r2, [r1, #8]
    if (((RCC_ClkInitStruct->ClockType) & RCC_CLOCKTYPE_PCLK2) == RCC_CLOCKTYPE_PCLK2)
 8002966:	071a      	lsls	r2, r3, #28
 8002968:	d504      	bpl.n	8002974 <HAL_RCC_ClockConfig+0x50>
      MODIFY_REG(RCC->CFGR, RCC_CFGR_PPRE2, (RCC_HCLK_DIV16 << 3));
 800296a:	4939      	ldr	r1, [pc, #228]	; (8002a50 <HAL_RCC_ClockConfig+0x12c>)
 800296c:	688a      	ldr	r2, [r1, #8]
 800296e:	f442 4260 	orr.w	r2, r2, #57344	; 0xe000
 8002972:	608a      	str	r2, [r1, #8]
    MODIFY_REG(RCC->CFGR, RCC_CFGR_HPRE, RCC_ClkInitStruct->AHBCLKDivider);
 8002974:	4936      	ldr	r1, [pc, #216]	; (8002a50 <HAL_RCC_ClockConfig+0x12c>)
 8002976:	68a0      	ldr	r0, [r4, #8]
 8002978:	688a      	ldr	r2, [r1, #8]
 800297a:	f022 02f0 	bic.w	r2, r2, #240	; 0xf0
 800297e:	4302      	orrs	r2, r0
 8002980:	608a      	str	r2, [r1, #8]
  if (((RCC_ClkInitStruct->ClockType) & RCC_CLOCKTYPE_SYSCLK) == RCC_CLOCKTYPE_SYSCLK)
 8002982:	07df      	lsls	r7, r3, #31
 8002984:	d521      	bpl.n	80029ca <HAL_RCC_ClockConfig+0xa6>
    if (RCC_ClkInitStruct->SYSCLKSource == RCC_SYSCLKSOURCE_HSE)
 8002986:	6862      	ldr	r2, [r4, #4]
 8002988:	2a01      	cmp	r2, #1
 800298a:	d057      	beq.n	8002a3c <HAL_RCC_ClockConfig+0x118>
    else if ((RCC_ClkInitStruct->SYSCLKSource == RCC_SYSCLKSOURCE_PLLCLK)   ||
 800298c:	1e93      	subs	r3, r2, #2
 800298e:	2b01      	cmp	r3, #1
      if (__HAL_RCC_GET_FLAG(RCC_FLAG_PLLRDY) == RESET)
 8002990:	4b2f      	ldr	r3, [pc, #188]	; (8002a50 <HAL_RCC_ClockConfig+0x12c>)
 8002992:	681b      	ldr	r3, [r3, #0]
    else if ((RCC_ClkInitStruct->SYSCLKSource == RCC_SYSCLKSOURCE_PLLCLK)   ||
 8002994:	d94d      	bls.n	8002a32 <HAL_RCC_ClockConfig+0x10e>
      if (__HAL_RCC_GET_FLAG(RCC_FLAG_HSIRDY) == RESET)
 8002996:	0799      	lsls	r1, r3, #30
 8002998:	d5d8      	bpl.n	800294c <HAL_RCC_ClockConfig+0x28>
    __HAL_RCC_SYSCLK_CONFIG(RCC_ClkInitStruct->SYSCLKSource);
 800299a:	4e2d      	ldr	r6, [pc, #180]	; (8002a50 <HAL_RCC_ClockConfig+0x12c>)
 800299c:	68b3      	ldr	r3, [r6, #8]
 800299e:	f023 0303 	bic.w	r3, r3, #3
 80029a2:	4313      	orrs	r3, r2
 80029a4:	60b3      	str	r3, [r6, #8]
    tickstart = HAL_GetTick();
 80029a6:	f7ff fbef 	bl	8002188 <HAL_GetTick>
      if ((HAL_GetTick() - tickstart) > CLOCKSWITCH_TIMEOUT_VALUE)
 80029aa:	f241 3888 	movw	r8, #5000	; 0x1388
    tickstart = HAL_GetTick();
 80029ae:	4607      	mov	r7, r0
    while (__HAL_RCC_GET_SYSCLK_SOURCE() != (RCC_ClkInitStruct->SYSCLKSource << RCC_CFGR_SWS_Pos))
 80029b0:	e004      	b.n	80029bc <HAL_RCC_ClockConfig+0x98>
      if ((HAL_GetTick() - tickstart) > CLOCKSWITCH_TIMEOUT_VALUE)
 80029b2:	f7ff fbe9 	bl	8002188 <HAL_GetTick>
 80029b6:	1bc0      	subs	r0, r0, r7
 80029b8:	4540      	cmp	r0, r8
 80029ba:	d844      	bhi.n	8002a46 <HAL_RCC_ClockConfig+0x122>
    while (__HAL_RCC_GET_SYSCLK_SOURCE() != (RCC_ClkInitStruct->SYSCLKSource << RCC_CFGR_SWS_Pos))
 80029bc:	68b3      	ldr	r3, [r6, #8]
 80029be:	6862      	ldr	r2, [r4, #4]
 80029c0:	f003 030c 	and.w	r3, r3, #12
 80029c4:	ebb3 0f82 	cmp.w	r3, r2, lsl #2
 80029c8:	d1f3      	bne.n	80029b2 <HAL_RCC_ClockConfig+0x8e>
  if (FLatency < __HAL_FLASH_GET_LATENCY())
 80029ca:	4a20      	ldr	r2, [pc, #128]	; (8002a4c <HAL_RCC_ClockConfig+0x128>)
 80029cc:	6813      	ldr	r3, [r2, #0]
 80029ce:	f003 0307 	and.w	r3, r3, #7
 80029d2:	42ab      	cmp	r3, r5
 80029d4:	d906      	bls.n	80029e4 <HAL_RCC_ClockConfig+0xc0>
    __HAL_FLASH_SET_LATENCY(FLatency);
 80029d6:	b2eb      	uxtb	r3, r5
 80029d8:	7013      	strb	r3, [r2, #0]
    if (__HAL_FLASH_GET_LATENCY() != FLatency)
 80029da:	6813      	ldr	r3, [r2, #0]
 80029dc:	f003 0307 	and.w	r3, r3, #7
 80029e0:	42ab      	cmp	r3, r5
 80029e2:	d1b3      	bne.n	800294c <HAL_RCC_ClockConfig+0x28>
  if (((RCC_ClkInitStruct->ClockType) & RCC_CLOCKTYPE_PCLK1) == RCC_CLOCKTYPE_PCLK1)
 80029e4:	6823      	ldr	r3, [r4, #0]
 80029e6:	075a      	lsls	r2, r3, #29
 80029e8:	d506      	bpl.n	80029f8 <HAL_RCC_ClockConfig+0xd4>
    MODIFY_REG(RCC->CFGR, RCC_CFGR_PPRE1, RCC_ClkInitStruct->APB1CLKDivider);
 80029ea:	4919      	ldr	r1, [pc, #100]	; (8002a50 <HAL_RCC_ClockConfig+0x12c>)
 80029ec:	68e0      	ldr	r0, [r4, #12]
 80029ee:	688a      	ldr	r2, [r1, #8]
 80029f0:	f422 52e0 	bic.w	r2, r2, #7168	; 0x1c00
 80029f4:	4302      	orrs	r2, r0
 80029f6:	608a      	str	r2, [r1, #8]
  if (((RCC_ClkInitStruct->ClockType) & RCC_CLOCKTYPE_PCLK2) == RCC_CLOCKTYPE_PCLK2)
 80029f8:	071b      	lsls	r3, r3, #28
 80029fa:	d507      	bpl.n	8002a0c <HAL_RCC_ClockConfig+0xe8>
    MODIFY_REG(RCC->CFGR, RCC_CFGR_PPRE2, ((RCC_ClkInitStruct->APB2CLKDivider) << 3U));
 80029fc:	4a14      	ldr	r2, [pc, #80]	; (8002a50 <HAL_RCC_ClockConfig+0x12c>)
 80029fe:	6921      	ldr	r1, [r4, #16]
 8002a00:	6893      	ldr	r3, [r2, #8]
 8002a02:	f423 4360 	bic.w	r3, r3, #57344	; 0xe000
 8002a06:	ea43 03c1 	orr.w	r3, r3, r1, lsl #3
 8002a0a:	6093      	str	r3, [r2, #8]
  SystemCoreClock = HAL_RCC_GetSysClockFreq() >> AHBPrescTable[(RCC->CFGR & RCC_CFGR_HPRE) >> RCC_CFGR_HPRE_Pos];
 8002a0c:	f7ff ff56 	bl	80028bc <HAL_RCC_GetSysClockFreq>
 8002a10:	4a0f      	ldr	r2, [pc, #60]	; (8002a50 <HAL_RCC_ClockConfig+0x12c>)
 8002a12:	4c10      	ldr	r4, [pc, #64]	; (8002a54 <HAL_RCC_ClockConfig+0x130>)
 8002a14:	6892      	ldr	r2, [r2, #8]
 8002a16:	4910      	ldr	r1, [pc, #64]	; (8002a58 <HAL_RCC_ClockConfig+0x134>)
 8002a18:	f3c2 1203 	ubfx	r2, r2, #4, #4
 8002a1c:	4603      	mov	r3, r0
 8002a1e:	5ca2      	ldrb	r2, [r4, r2]
  HAL_InitTick(uwTickPrio);
 8002a20:	480e      	ldr	r0, [pc, #56]	; (8002a5c <HAL_RCC_ClockConfig+0x138>)
  SystemCoreClock = HAL_RCC_GetSysClockFreq() >> AHBPrescTable[(RCC->CFGR & RCC_CFGR_HPRE) >> RCC_CFGR_HPRE_Pos];
 8002a22:	40d3      	lsrs	r3, r2
  HAL_InitTick(uwTickPrio);
 8002a24:	6800      	ldr	r0, [r0, #0]
  SystemCoreClock = HAL_RCC_GetSysClockFreq() >> AHBPrescTable[(RCC->CFGR & RCC_CFGR_HPRE) >> RCC_CFGR_HPRE_Pos];
 8002a26:	600b      	str	r3, [r1, #0]
  HAL_InitTick(uwTickPrio);
 8002a28:	f7ff fb64 	bl	80020f4 <HAL_InitTick>
  return HAL_OK;
 8002a2c:	2000      	movs	r0, #0
}
 8002a2e:	e8bd 81f0 	ldmia.w	sp!, {r4, r5, r6, r7, r8, pc}
      if (__HAL_RCC_GET_FLAG(RCC_FLAG_PLLRDY) == RESET)
 8002a32:	0198      	lsls	r0, r3, #6
 8002a34:	d4b1      	bmi.n	800299a <HAL_RCC_ClockConfig+0x76>
 8002a36:	e789      	b.n	800294c <HAL_RCC_ClockConfig+0x28>
    return HAL_ERROR;
 8002a38:	2001      	movs	r0, #1
}
 8002a3a:	4770      	bx	lr
      if (__HAL_RCC_GET_FLAG(RCC_FLAG_HSERDY) == RESET)
 8002a3c:	4b04      	ldr	r3, [pc, #16]	; (8002a50 <HAL_RCC_ClockConfig+0x12c>)
 8002a3e:	681b      	ldr	r3, [r3, #0]
 8002a40:	039e      	lsls	r6, r3, #14
 8002a42:	d4aa      	bmi.n	800299a <HAL_RCC_ClockConfig+0x76>
 8002a44:	e782      	b.n	800294c <HAL_RCC_ClockConfig+0x28>
        return HAL_TIMEOUT;
 8002a46:	2003      	movs	r0, #3
 8002a48:	e781      	b.n	800294e <HAL_RCC_ClockConfig+0x2a>
 8002a4a:	bf00      	nop
 8002a4c:	40023c00 	.word	0x40023c00
 8002a50:	40023800 	.word	0x40023800
 8002a54:	08003888 	.word	0x08003888
 8002a58:	20000000 	.word	0x20000000
 8002a5c:	20000008 	.word	0x20000008

08002a60 <HAL_RCCEx_PeriphCLKConfig>:
  *        domain (RTC and RCC_BDCR register expect BKPSRAM) will be reset
  *
  * @retval HAL status
  */
HAL_StatusTypeDef HAL_RCCEx_PeriphCLKConfig(RCC_PeriphCLKInitTypeDef  *PeriphClkInit)
{
 8002a60:	b5f0      	push	{r4, r5, r6, r7, lr}

  /* Check the parameters */
  assert_param(IS_RCC_PERIPHCLOCK(PeriphClkInit->PeriphClockSelection));

  /*---------------------------- I2S configuration ---------------------------*/
  if ((((PeriphClkInit->PeriphClockSelection) & RCC_PERIPHCLK_I2S) == RCC_PERIPHCLK_I2S) ||
 8002a62:	6803      	ldr	r3, [r0, #0]
 8002a64:	f013 0f05 	tst.w	r3, #5
{
 8002a68:	b083      	sub	sp, #12
 8002a6a:	4604      	mov	r4, r0
  if ((((PeriphClkInit->PeriphClockSelection) & RCC_PERIPHCLK_I2S) == RCC_PERIPHCLK_I2S) ||
 8002a6c:	d105      	bne.n	8002a7a <HAL_RCCEx_PeriphCLKConfig+0x1a>
      }
    }
  }

  /*---------------------------- RTC configuration ---------------------------*/
  if (((PeriphClkInit->PeriphClockSelection) & RCC_PERIPHCLK_RTC) == (RCC_PERIPHCLK_RTC))
 8002a6e:	f013 0302 	ands.w	r3, r3, #2
 8002a72:	d13b      	bne.n	8002aec <HAL_RCCEx_PeriphCLKConfig+0x8c>
  if (((PeriphClkInit->PeriphClockSelection) & RCC_PERIPHCLK_TIM) == (RCC_PERIPHCLK_TIM))
  {
    __HAL_RCC_TIMCLKPRESCALER(PeriphClkInit->TIMPresSelection);
  }
#endif /* STM32F401xC || STM32F401xE || STM32F411xE */
  return HAL_OK;
 8002a74:	4618      	mov	r0, r3
}
 8002a76:	b003      	add	sp, #12
 8002a78:	bdf0      	pop	{r4, r5, r6, r7, pc}
    __HAL_RCC_PLLI2S_DISABLE();
 8002a7a:	4b46      	ldr	r3, [pc, #280]	; (8002b94 <HAL_RCCEx_PeriphCLKConfig+0x134>)
    while (__HAL_RCC_GET_FLAG(RCC_FLAG_PLLI2SRDY)  != RESET)
 8002a7c:	4e46      	ldr	r6, [pc, #280]	; (8002b98 <HAL_RCCEx_PeriphCLKConfig+0x138>)
    __HAL_RCC_PLLI2S_DISABLE();
 8002a7e:	2200      	movs	r2, #0
 8002a80:	669a      	str	r2, [r3, #104]	; 0x68
    tickstart = HAL_GetTick();
 8002a82:	f7ff fb81 	bl	8002188 <HAL_GetTick>
 8002a86:	4605      	mov	r5, r0
    while (__HAL_RCC_GET_FLAG(RCC_FLAG_PLLI2SRDY)  != RESET)
 8002a88:	e004      	b.n	8002a94 <HAL_RCCEx_PeriphCLKConfig+0x34>
      if ((HAL_GetTick() - tickstart) > PLLI2S_TIMEOUT_VALUE)
 8002a8a:	f7ff fb7d 	bl	8002188 <HAL_GetTick>
 8002a8e:	1b43      	subs	r3, r0, r5
 8002a90:	2b02      	cmp	r3, #2
 8002a92:	d828      	bhi.n	8002ae6 <HAL_RCCEx_PeriphCLKConfig+0x86>
    while (__HAL_RCC_GET_FLAG(RCC_FLAG_PLLI2SRDY)  != RESET)
 8002a94:	6833      	ldr	r3, [r6, #0]
 8002a96:	011f      	lsls	r7, r3, #4
 8002a98:	d4f7      	bmi.n	8002a8a <HAL_RCCEx_PeriphCLKConfig+0x2a>
    __HAL_RCC_PLLI2S_CONFIG(PeriphClkInit->PLLI2S.PLLI2SN, PeriphClkInit->PLLI2S.PLLI2SR);
 8002a9a:	e9d4 1301 	ldrd	r1, r3, [r4, #4]
 8002a9e:	071b      	lsls	r3, r3, #28
 8002aa0:	ea43 1381 	orr.w	r3, r3, r1, lsl #6
    __HAL_RCC_PLLI2S_ENABLE();
 8002aa4:	4a3b      	ldr	r2, [pc, #236]	; (8002b94 <HAL_RCCEx_PeriphCLKConfig+0x134>)
    __HAL_RCC_PLLI2S_CONFIG(PeriphClkInit->PLLI2S.PLLI2SN, PeriphClkInit->PLLI2S.PLLI2SR);
 8002aa6:	f8c6 3084 	str.w	r3, [r6, #132]	; 0x84
    __HAL_RCC_PLLI2S_ENABLE();
 8002aaa:	2301      	movs	r3, #1
 8002aac:	6693      	str	r3, [r2, #104]	; 0x68
    tickstart = HAL_GetTick();
 8002aae:	f7ff fb6b 	bl	8002188 <HAL_GetTick>
    while (__HAL_RCC_GET_FLAG(RCC_FLAG_PLLI2SRDY)  == RESET)
 8002ab2:	4e39      	ldr	r6, [pc, #228]	; (8002b98 <HAL_RCCEx_PeriphCLKConfig+0x138>)
    tickstart = HAL_GetTick();
 8002ab4:	4605      	mov	r5, r0
    while (__HAL_RCC_GET_FLAG(RCC_FLAG_PLLI2SRDY)  == RESET)
 8002ab6:	e004      	b.n	8002ac2 <HAL_RCCEx_PeriphCLKConfig+0x62>
      if ((HAL_GetTick() - tickstart) > PLLI2S_TIMEOUT_VALUE)
 8002ab8:	f7ff fb66 	bl	8002188 <HAL_GetTick>
 8002abc:	1b40      	subs	r0, r0, r5
 8002abe:	2802      	cmp	r0, #2
 8002ac0:	d811      	bhi.n	8002ae6 <HAL_RCCEx_PeriphCLKConfig+0x86>
    while (__HAL_RCC_GET_FLAG(RCC_FLAG_PLLI2SRDY)  == RESET)
 8002ac2:	6833      	ldr	r3, [r6, #0]
 8002ac4:	0118      	lsls	r0, r3, #4
 8002ac6:	d5f7      	bpl.n	8002ab8 <HAL_RCCEx_PeriphCLKConfig+0x58>
  if (((PeriphClkInit->PeriphClockSelection) & RCC_PERIPHCLK_RTC) == (RCC_PERIPHCLK_RTC))
 8002ac8:	6823      	ldr	r3, [r4, #0]
 8002aca:	e7d0      	b.n	8002a6e <HAL_RCCEx_PeriphCLKConfig+0xe>
        tickstart = HAL_GetTick();
 8002acc:	f7ff fb5c 	bl	8002188 <HAL_GetTick>
          if ((HAL_GetTick() - tickstart) > RCC_LSE_TIMEOUT_VALUE)
 8002ad0:	f241 3788 	movw	r7, #5000	; 0x1388
        tickstart = HAL_GetTick();
 8002ad4:	4606      	mov	r6, r0
        while (__HAL_RCC_GET_FLAG(RCC_FLAG_LSERDY) == RESET)
 8002ad6:	6f2b      	ldr	r3, [r5, #112]	; 0x70
 8002ad8:	079b      	lsls	r3, r3, #30
 8002ada:	d43c      	bmi.n	8002b56 <HAL_RCCEx_PeriphCLKConfig+0xf6>
          if ((HAL_GetTick() - tickstart) > RCC_LSE_TIMEOUT_VALUE)
 8002adc:	f7ff fb54 	bl	8002188 <HAL_GetTick>
 8002ae0:	1b80      	subs	r0, r0, r6
 8002ae2:	42b8      	cmp	r0, r7
 8002ae4:	d9f7      	bls.n	8002ad6 <HAL_RCCEx_PeriphCLKConfig+0x76>
        return HAL_TIMEOUT;
 8002ae6:	2003      	movs	r0, #3
}
 8002ae8:	b003      	add	sp, #12
 8002aea:	bdf0      	pop	{r4, r5, r6, r7, pc}
    __HAL_RCC_PWR_CLK_ENABLE();
 8002aec:	4b2a      	ldr	r3, [pc, #168]	; (8002b98 <HAL_RCCEx_PeriphCLKConfig+0x138>)
    PWR->CR |= PWR_CR_DBP;
 8002aee:	4d2b      	ldr	r5, [pc, #172]	; (8002b9c <HAL_RCCEx_PeriphCLKConfig+0x13c>)
    __HAL_RCC_PWR_CLK_ENABLE();
 8002af0:	2200      	movs	r2, #0
 8002af2:	9201      	str	r2, [sp, #4]
 8002af4:	6c1a      	ldr	r2, [r3, #64]	; 0x40
 8002af6:	f042 5280 	orr.w	r2, r2, #268435456	; 0x10000000
 8002afa:	641a      	str	r2, [r3, #64]	; 0x40
 8002afc:	6c1b      	ldr	r3, [r3, #64]	; 0x40
 8002afe:	f003 5380 	and.w	r3, r3, #268435456	; 0x10000000
 8002b02:	9301      	str	r3, [sp, #4]
 8002b04:	9b01      	ldr	r3, [sp, #4]
    PWR->CR |= PWR_CR_DBP;
 8002b06:	682b      	ldr	r3, [r5, #0]
 8002b08:	f443 7380 	orr.w	r3, r3, #256	; 0x100
 8002b0c:	602b      	str	r3, [r5, #0]
    tickstart = HAL_GetTick();
 8002b0e:	f7ff fb3b 	bl	8002188 <HAL_GetTick>
 8002b12:	4606      	mov	r6, r0
    while ((PWR->CR & PWR_CR_DBP) == RESET)
 8002b14:	e004      	b.n	8002b20 <HAL_RCCEx_PeriphCLKConfig+0xc0>
      if ((HAL_GetTick() - tickstart) > RCC_DBP_TIMEOUT_VALUE)
 8002b16:	f7ff fb37 	bl	8002188 <HAL_GetTick>
 8002b1a:	1b83      	subs	r3, r0, r6
 8002b1c:	2b02      	cmp	r3, #2
 8002b1e:	d8e2      	bhi.n	8002ae6 <HAL_RCCEx_PeriphCLKConfig+0x86>
    while ((PWR->CR & PWR_CR_DBP) == RESET)
 8002b20:	682b      	ldr	r3, [r5, #0]
 8002b22:	05d9      	lsls	r1, r3, #23
 8002b24:	d5f7      	bpl.n	8002b16 <HAL_RCCEx_PeriphCLKConfig+0xb6>
    tmpreg1 = (RCC->BDCR & RCC_BDCR_RTCSEL);
 8002b26:	4d1c      	ldr	r5, [pc, #112]	; (8002b98 <HAL_RCCEx_PeriphCLKConfig+0x138>)
    if ((tmpreg1 != 0x00000000U) && ((tmpreg1) != (PeriphClkInit->RTCClockSelection & RCC_BDCR_RTCSEL)))
 8002b28:	68e3      	ldr	r3, [r4, #12]
    tmpreg1 = (RCC->BDCR & RCC_BDCR_RTCSEL);
 8002b2a:	6f2a      	ldr	r2, [r5, #112]	; 0x70
    if ((tmpreg1 != 0x00000000U) && ((tmpreg1) != (PeriphClkInit->RTCClockSelection & RCC_BDCR_RTCSEL)))
 8002b2c:	f412 7240 	ands.w	r2, r2, #768	; 0x300
 8002b30:	d012      	beq.n	8002b58 <HAL_RCCEx_PeriphCLKConfig+0xf8>
 8002b32:	f403 7140 	and.w	r1, r3, #768	; 0x300
 8002b36:	4291      	cmp	r1, r2
 8002b38:	d010      	beq.n	8002b5c <HAL_RCCEx_PeriphCLKConfig+0xfc>
      tmpreg1 = (RCC->BDCR & ~(RCC_BDCR_RTCSEL));
 8002b3a:	6f2b      	ldr	r3, [r5, #112]	; 0x70
      __HAL_RCC_BACKUPRESET_FORCE();
 8002b3c:	4a15      	ldr	r2, [pc, #84]	; (8002b94 <HAL_RCCEx_PeriphCLKConfig+0x134>)
 8002b3e:	2101      	movs	r1, #1
 8002b40:	f8c2 1e40 	str.w	r1, [r2, #3648]	; 0xe40
      tmpreg1 = (RCC->BDCR & ~(RCC_BDCR_RTCSEL));
 8002b44:	f423 7340 	bic.w	r3, r3, #768	; 0x300
      __HAL_RCC_BACKUPRESET_RELEASE();
 8002b48:	2100      	movs	r1, #0
 8002b4a:	f8c2 1e40 	str.w	r1, [r2, #3648]	; 0xe40
      RCC->BDCR = tmpreg1;
 8002b4e:	672b      	str	r3, [r5, #112]	; 0x70
      if (HAL_IS_BIT_SET(RCC->BDCR, RCC_BDCR_LSEON))
 8002b50:	6f2b      	ldr	r3, [r5, #112]	; 0x70
 8002b52:	07da      	lsls	r2, r3, #31
 8002b54:	d4ba      	bmi.n	8002acc <HAL_RCCEx_PeriphCLKConfig+0x6c>
    __HAL_RCC_RTC_CONFIG(PeriphClkInit->RTCClockSelection);
 8002b56:	68e3      	ldr	r3, [r4, #12]
 8002b58:	f403 7240 	and.w	r2, r3, #768	; 0x300
 8002b5c:	f5b2 7f40 	cmp.w	r2, #768	; 0x300
 8002b60:	d00d      	beq.n	8002b7e <HAL_RCCEx_PeriphCLKConfig+0x11e>
 8002b62:	490d      	ldr	r1, [pc, #52]	; (8002b98 <HAL_RCCEx_PeriphCLKConfig+0x138>)
 8002b64:	688a      	ldr	r2, [r1, #8]
 8002b66:	f422 12f8 	bic.w	r2, r2, #2031616	; 0x1f0000
 8002b6a:	608a      	str	r2, [r1, #8]
 8002b6c:	4a0a      	ldr	r2, [pc, #40]	; (8002b98 <HAL_RCCEx_PeriphCLKConfig+0x138>)
 8002b6e:	6f11      	ldr	r1, [r2, #112]	; 0x70
 8002b70:	f3c3 030b 	ubfx	r3, r3, #0, #12
  return HAL_OK;
 8002b74:	2000      	movs	r0, #0
    __HAL_RCC_RTC_CONFIG(PeriphClkInit->RTCClockSelection);
 8002b76:	430b      	orrs	r3, r1
 8002b78:	6713      	str	r3, [r2, #112]	; 0x70
}
 8002b7a:	b003      	add	sp, #12
 8002b7c:	bdf0      	pop	{r4, r5, r6, r7, pc}
    __HAL_RCC_RTC_CONFIG(PeriphClkInit->RTCClockSelection);
 8002b7e:	4806      	ldr	r0, [pc, #24]	; (8002b98 <HAL_RCCEx_PeriphCLKConfig+0x138>)
 8002b80:	6882      	ldr	r2, [r0, #8]
 8002b82:	f023 4170 	bic.w	r1, r3, #4026531840	; 0xf0000000
 8002b86:	f421 7140 	bic.w	r1, r1, #768	; 0x300
 8002b8a:	f422 12f8 	bic.w	r2, r2, #2031616	; 0x1f0000
 8002b8e:	430a      	orrs	r2, r1
 8002b90:	6082      	str	r2, [r0, #8]
 8002b92:	e7eb      	b.n	8002b6c <HAL_RCCEx_PeriphCLKConfig+0x10c>
 8002b94:	42470000 	.word	0x42470000
 8002b98:	40023800 	.word	0x40023800
 8002b9c:	40007000 	.word	0x40007000

08002ba0 <HAL_RTC_Init>:
HAL_StatusTypeDef HAL_RTC_Init(RTC_HandleTypeDef *hrtc)
{
  HAL_StatusTypeDef status;

  /* Check RTC handler validity */
  if (hrtc == NULL)
 8002ba0:	2800      	cmp	r0, #0
 8002ba2:	d054      	beq.n	8002c4e <HAL_RTC_Init+0xae>
{
 8002ba4:	b538      	push	{r3, r4, r5, lr}
    {
      hrtc->MspDeInitCallback = HAL_RTC_MspDeInit;
    }
  }
#else /* USE_HAL_RTC_REGISTER_CALLBACKS */
  if (hrtc->State == HAL_RTC_STATE_RESET)
 8002ba6:	7f43      	ldrb	r3, [r0, #29]
 8002ba8:	4604      	mov	r4, r0
 8002baa:	f003 02ff 	and.w	r2, r3, #255	; 0xff
 8002bae:	b14b      	cbz	r3, 8002bc4 <HAL_RTC_Init+0x24>
    HAL_RTC_MspInit(hrtc);
  }
#endif /* USE_HAL_RTC_REGISTER_CALLBACKS */

  /* Set RTC state */
  hrtc->State = HAL_RTC_STATE_BUSY;
 8002bb0:	2202      	movs	r2, #2

  /* Check whether the calendar needs to be initialized */
  if (__HAL_RTC_IS_CALENDAR_INITIALIZED(hrtc) == 0U)
 8002bb2:	6823      	ldr	r3, [r4, #0]
  hrtc->State = HAL_RTC_STATE_BUSY;
 8002bb4:	7762      	strb	r2, [r4, #29]
  if (__HAL_RTC_IS_CALENDAR_INITIALIZED(hrtc) == 0U)
 8002bb6:	68da      	ldr	r2, [r3, #12]
 8002bb8:	06d2      	lsls	r2, r2, #27
 8002bba:	d507      	bpl.n	8002bcc <HAL_RTC_Init+0x2c>
    status = HAL_OK;
  }

  if (status == HAL_OK)
  {
    hrtc->State = HAL_RTC_STATE_READY;
 8002bbc:	2301      	movs	r3, #1
 8002bbe:	7763      	strb	r3, [r4, #29]
 8002bc0:	2000      	movs	r0, #0
  }

  return status;
}
 8002bc2:	bd38      	pop	{r3, r4, r5, pc}
    hrtc->Lock = HAL_UNLOCKED;
 8002bc4:	7702      	strb	r2, [r0, #28]
    HAL_RTC_MspInit(hrtc);
 8002bc6:	f7ff f9f5 	bl	8001fb4 <HAL_RTC_MspInit>
 8002bca:	e7f1      	b.n	8002bb0 <HAL_RTC_Init+0x10>
    __HAL_RTC_WRITEPROTECTION_DISABLE(hrtc);
 8002bcc:	2253      	movs	r2, #83	; 0x53
 8002bce:	21ca      	movs	r1, #202	; 0xca
 8002bd0:	6259      	str	r1, [r3, #36]	; 0x24
 8002bd2:	625a      	str	r2, [r3, #36]	; 0x24
{
  uint32_t tickstart = 0U;
  HAL_StatusTypeDef status = HAL_OK;

  /* Check that Initialization mode is not already set */
  if (READ_BIT(hrtc->Instance->ISR, RTC_ISR_INITF) == 0U)
 8002bd4:	68da      	ldr	r2, [r3, #12]
 8002bd6:	0655      	lsls	r5, r2, #25
 8002bd8:	d526      	bpl.n	8002c28 <HAL_RTC_Init+0x88>
      hrtc->Instance->CR &= ((uint32_t)~(RTC_CR_FMT | RTC_CR_OSEL | RTC_CR_POL));
 8002bda:	6899      	ldr	r1, [r3, #8]
      hrtc->Instance->CR |= (uint32_t)(hrtc->Init.HourFormat | hrtc->Init.OutPut | hrtc->Init.OutPutPolarity);
 8002bdc:	6862      	ldr	r2, [r4, #4]
 8002bde:	6925      	ldr	r5, [r4, #16]
      hrtc->Instance->CR &= ((uint32_t)~(RTC_CR_FMT | RTC_CR_OSEL | RTC_CR_POL));
 8002be0:	f421 01e0 	bic.w	r1, r1, #7340032	; 0x700000
 8002be4:	f021 0140 	bic.w	r1, r1, #64	; 0x40
 8002be8:	6099      	str	r1, [r3, #8]
      hrtc->Instance->CR |= (uint32_t)(hrtc->Init.HourFormat | hrtc->Init.OutPut | hrtc->Init.OutPutPolarity);
 8002bea:	6961      	ldr	r1, [r4, #20]
 8002bec:	6898      	ldr	r0, [r3, #8]
 8002bee:	432a      	orrs	r2, r5
 8002bf0:	430a      	orrs	r2, r1
 8002bf2:	4302      	orrs	r2, r0
      hrtc->Instance->PRER = (uint32_t)(hrtc->Init.SynchPrediv);
 8002bf4:	68e1      	ldr	r1, [r4, #12]
      hrtc->Instance->CR |= (uint32_t)(hrtc->Init.HourFormat | hrtc->Init.OutPut | hrtc->Init.OutPutPolarity);
 8002bf6:	609a      	str	r2, [r3, #8]
      hrtc->Instance->PRER = (uint32_t)(hrtc->Init.SynchPrediv);
 8002bf8:	6119      	str	r1, [r3, #16]
      hrtc->Instance->PRER |= (uint32_t)(hrtc->Init.AsynchPrediv << RTC_PRER_PREDIV_A_Pos);
 8002bfa:	691a      	ldr	r2, [r3, #16]
 8002bfc:	68a1      	ldr	r1, [r4, #8]
 8002bfe:	ea42 4201 	orr.w	r2, r2, r1, lsl #16
 8002c02:	611a      	str	r2, [r3, #16]
HAL_StatusTypeDef RTC_ExitInitMode(RTC_HandleTypeDef *hrtc)
{
  HAL_StatusTypeDef status = HAL_OK;

  /* Clear INIT bit to exit Initialization mode */
  CLEAR_BIT(hrtc->Instance->ISR, RTC_ISR_INIT);
 8002c04:	68da      	ldr	r2, [r3, #12]
 8002c06:	f022 0280 	bic.w	r2, r2, #128	; 0x80
 8002c0a:	60da      	str	r2, [r3, #12]

  /* If CR_BYPSHAD bit = 0, wait for synchro */
  if (READ_BIT(hrtc->Instance->CR, RTC_CR_BYPSHAD) == 0U)
 8002c0c:	689a      	ldr	r2, [r3, #8]
 8002c0e:	0691      	lsls	r1, r2, #26
 8002c10:	d527      	bpl.n	8002c62 <HAL_RTC_Init+0xc2>
      hrtc->Instance->TAFCR &= (uint32_t)~RTC_OUTPUT_TYPE_PUSHPULL;
 8002c12:	6c1a      	ldr	r2, [r3, #64]	; 0x40
      hrtc->Instance->TAFCR |= (uint32_t)(hrtc->Init.OutPutType);
 8002c14:	69a0      	ldr	r0, [r4, #24]
      hrtc->Instance->TAFCR &= (uint32_t)~RTC_OUTPUT_TYPE_PUSHPULL;
 8002c16:	f422 2280 	bic.w	r2, r2, #262144	; 0x40000
 8002c1a:	641a      	str	r2, [r3, #64]	; 0x40
      hrtc->Instance->TAFCR |= (uint32_t)(hrtc->Init.OutPutType);
 8002c1c:	6c1a      	ldr	r2, [r3, #64]	; 0x40
    __HAL_RTC_WRITEPROTECTION_ENABLE(hrtc);
 8002c1e:	21ff      	movs	r1, #255	; 0xff
      hrtc->Instance->TAFCR |= (uint32_t)(hrtc->Init.OutPutType);
 8002c20:	4302      	orrs	r2, r0
 8002c22:	641a      	str	r2, [r3, #64]	; 0x40
    __HAL_RTC_WRITEPROTECTION_ENABLE(hrtc);
 8002c24:	6259      	str	r1, [r3, #36]	; 0x24
  if (status == HAL_OK)
 8002c26:	e7c9      	b.n	8002bbc <HAL_RTC_Init+0x1c>
    SET_BIT(hrtc->Instance->ISR, RTC_ISR_INIT);
 8002c28:	68da      	ldr	r2, [r3, #12]
 8002c2a:	f042 0280 	orr.w	r2, r2, #128	; 0x80
 8002c2e:	60da      	str	r2, [r3, #12]
    tickstart = HAL_GetTick();
 8002c30:	f7ff faaa 	bl	8002188 <HAL_GetTick>
 8002c34:	4605      	mov	r5, r0
    while ((READ_BIT(hrtc->Instance->ISR, RTC_ISR_INITF) == 0U) && (status != HAL_ERROR))
 8002c36:	e005      	b.n	8002c44 <HAL_RTC_Init+0xa4>
      if ((HAL_GetTick() - tickstart) > RTC_TIMEOUT_VALUE)
 8002c38:	f7ff faa6 	bl	8002188 <HAL_GetTick>
 8002c3c:	1b40      	subs	r0, r0, r5
 8002c3e:	f5b0 7f7a 	cmp.w	r0, #1000	; 0x3e8
 8002c42:	d806      	bhi.n	8002c52 <HAL_RTC_Init+0xb2>
    while ((READ_BIT(hrtc->Instance->ISR, RTC_ISR_INITF) == 0U) && (status != HAL_ERROR))
 8002c44:	6823      	ldr	r3, [r4, #0]
 8002c46:	68da      	ldr	r2, [r3, #12]
 8002c48:	0650      	lsls	r0, r2, #25
 8002c4a:	d4c6      	bmi.n	8002bda <HAL_RTC_Init+0x3a>
 8002c4c:	e7f4      	b.n	8002c38 <HAL_RTC_Init+0x98>
    return HAL_ERROR;
 8002c4e:	2001      	movs	r0, #1
}
 8002c50:	4770      	bx	lr
        hrtc->State = HAL_RTC_STATE_ERROR;
 8002c52:	2304      	movs	r3, #4
    while ((READ_BIT(hrtc->Instance->ISR, RTC_ISR_INITF) == 0U) && (status != HAL_ERROR))
 8002c54:	6822      	ldr	r2, [r4, #0]
        hrtc->State = HAL_RTC_STATE_ERROR;
 8002c56:	7763      	strb	r3, [r4, #29]
    while ((READ_BIT(hrtc->Instance->ISR, RTC_ISR_INITF) == 0U) && (status != HAL_ERROR))
 8002c58:	68d3      	ldr	r3, [r2, #12]
    __HAL_RTC_WRITEPROTECTION_ENABLE(hrtc);
 8002c5a:	23ff      	movs	r3, #255	; 0xff
 8002c5c:	6253      	str	r3, [r2, #36]	; 0x24
 8002c5e:	2001      	movs	r0, #1
}
 8002c60:	bd38      	pop	{r3, r4, r5, pc}
  hrtc->Instance->ISR = ((uint32_t)(RTC_RSF_MASK & RTC_ISR_RESERVED_MASK));
 8002c62:	4a09      	ldr	r2, [pc, #36]	; (8002c88 <HAL_RTC_Init+0xe8>)
 8002c64:	60da      	str	r2, [r3, #12]
  tickstart = HAL_GetTick();
 8002c66:	f7ff fa8f 	bl	8002188 <HAL_GetTick>
 8002c6a:	4605      	mov	r5, r0
  while ((hrtc->Instance->ISR & RTC_ISR_RSF) == 0U)
 8002c6c:	6823      	ldr	r3, [r4, #0]
 8002c6e:	68da      	ldr	r2, [r3, #12]
 8002c70:	0692      	lsls	r2, r2, #26
 8002c72:	d4ce      	bmi.n	8002c12 <HAL_RTC_Init+0x72>
    if ((HAL_GetTick() - tickstart) > RTC_TIMEOUT_VALUE)
 8002c74:	f7ff fa88 	bl	8002188 <HAL_GetTick>
 8002c78:	1b40      	subs	r0, r0, r5
 8002c7a:	f5b0 7f7a 	cmp.w	r0, #1000	; 0x3e8
 8002c7e:	d9f5      	bls.n	8002c6c <HAL_RTC_Init+0xcc>
  {
    if (HAL_RTC_WaitForSynchro(hrtc) != HAL_OK)
    {
      /* Set RTC state */
      hrtc->State = HAL_RTC_STATE_ERROR;
 8002c80:	2304      	movs	r3, #4
    __HAL_RTC_WRITEPROTECTION_ENABLE(hrtc);
 8002c82:	6822      	ldr	r2, [r4, #0]
      hrtc->State = HAL_RTC_STATE_ERROR;
 8002c84:	7763      	strb	r3, [r4, #29]
    if (status == HAL_OK)
 8002c86:	e7e8      	b.n	8002c5a <HAL_RTC_Init+0xba>
 8002c88:	00017f5f 	.word	0x00017f5f

08002c8c <HAL_RTC_SetTime>:
  __HAL_LOCK(hrtc);
 8002c8c:	7f03      	ldrb	r3, [r0, #28]
 8002c8e:	2b01      	cmp	r3, #1
 8002c90:	f000 8274 	beq.w	800317c <HAL_RTC_SetTime+0x4f0>
{
 8002c94:	e92d 47f0 	stmdb	sp!, {r4, r5, r6, r7, r8, r9, sl, lr}
  hrtc->State = HAL_RTC_STATE_BUSY;
 8002c98:	2302      	movs	r3, #2
 8002c9a:	460c      	mov	r4, r1
  __HAL_LOCK(hrtc);
 8002c9c:	2101      	movs	r1, #1
 8002c9e:	7701      	strb	r1, [r0, #28]
  hrtc->State = HAL_RTC_STATE_BUSY;
 8002ca0:	4605      	mov	r5, r0
    if ((hrtc->Instance->CR & RTC_CR_FMT) != 0U)
 8002ca2:	6801      	ldr	r1, [r0, #0]
  hrtc->State = HAL_RTC_STATE_BUSY;
 8002ca4:	7743      	strb	r3, [r0, #29]
  if (Format == RTC_FORMAT_BIN)
 8002ca6:	2a00      	cmp	r2, #0
 8002ca8:	f040 8201 	bne.w	80030ae <HAL_RTC_SetTime+0x422>
    if ((hrtc->Instance->CR & RTC_CR_FMT) != 0U)
 8002cac:	6888      	ldr	r0, [r1, #8]
    tmpreg = (uint32_t)(( (uint32_t)RTC_ByteToBcd2(sTime->Hours)   << RTC_TR_HU_Pos)  | \
 8002cae:	f894 c000 	ldrb.w	ip, [r4]
    if ((hrtc->Instance->CR & RTC_CR_FMT) != 0U)
 8002cb2:	f010 0040 	ands.w	r0, r0, #64	; 0x40
              ((uint32_t)(sTime->TimeFormat) << RTC_TR_PM_Pos));
 8002cb6:	bf16      	itet	ne
 8002cb8:	78e0      	ldrbne	r0, [r4, #3]
      sTime->TimeFormat = 0x00U;
 8002cba:	70e0      	strbeq	r0, [r4, #3]
              ((uint32_t)(sTime->TimeFormat) << RTC_TR_PM_Pos));
 8002cbc:	0580      	lslne	r0, r0, #22
  */
uint8_t RTC_ByteToBcd2(uint8_t number)
{
  uint32_t bcdhigh = 0U;

  while (number >= 10U)
 8002cbe:	f1bc 0f09 	cmp.w	ip, #9
 8002cc2:	f240 809e 	bls.w	8002e02 <HAL_RTC_SetTime+0x176>
 8002cc6:	4ed9      	ldr	r6, [pc, #868]	; (800302c <HAL_RTC_SetTime+0x3a0>)
 8002cc8:	f1ac 030a 	sub.w	r3, ip, #10
 8002ccc:	b2df      	uxtb	r7, r3
 8002cce:	fba6 6e07 	umull	r6, lr, r6, r7
 8002cd2:	ea4f 0ede 	mov.w	lr, lr, lsr #3
 8002cd6:	2f4f      	cmp	r7, #79	; 0x4f
 8002cd8:	f10e 0e01 	add.w	lr, lr, #1
 8002cdc:	f240 8260 	bls.w	80031a0 <HAL_RTC_SetTime+0x514>
 8002ce0:	f1ac 0628 	sub.w	r6, ip, #40	; 0x28
 8002ce4:	2300      	movs	r3, #0
 8002ce6:	f366 0307 	bfi	r3, r6, #0, #8
 8002cea:	f1ac 0632 	sub.w	r6, ip, #50	; 0x32
 8002cee:	f366 230f 	bfi	r3, r6, #8, #8
 8002cf2:	f1ac 063c 	sub.w	r6, ip, #60	; 0x3c
 8002cf6:	f366 4317 	bfi	r3, r6, #16, #8
 8002cfa:	f1ac 0646 	sub.w	r6, ip, #70	; 0x46
 8002cfe:	f366 631f 	bfi	r3, r6, #24, #8
 8002d02:	f003 377f 	and.w	r7, r3, #2139062143	; 0x7f7f7f7f
 8002d06:	f083 36b0 	eor.w	r6, r3, #2964369584	; 0xb0b0b0b0
 8002d0a:	f107 3830 	add.w	r8, r7, #808464432	; 0x30303030
 8002d0e:	f006 3680 	and.w	r6, r6, #2155905152	; 0x80808080
  {
    bcdhigh++;
    number -= 10U;
 8002d12:	f083 33f6 	eor.w	r3, r3, #4143380214	; 0xf6f6f6f6
 8002d16:	ea86 0608 	eor.w	r6, r6, r8
 8002d1a:	ea4f 08de 	mov.w	r8, lr, lsr #3
 8002d1e:	f003 3380 	and.w	r3, r3, #2155905152	; 0x80808080
 8002d22:	f107 3776 	add.w	r7, r7, #1987475062	; 0x76767676
 8002d26:	f1b8 0f01 	cmp.w	r8, #1
 8002d2a:	ea83 0307 	eor.w	r3, r3, r7
  while (number >= 10U)
 8002d2e:	f000 822d 	beq.w	800318c <HAL_RTC_SetTime+0x500>
 8002d32:	f006 337f 	and.w	r3, r6, #2139062143	; 0x7f7f7f7f
 8002d36:	f086 37b0 	eor.w	r7, r6, #2964369584	; 0xb0b0b0b0
    number -= 10U;
 8002d3a:	f086 36f6 	eor.w	r6, r6, #4143380214	; 0xf6f6f6f6
 8002d3e:	f103 3930 	add.w	r9, r3, #808464432	; 0x30303030
 8002d42:	f007 3780 	and.w	r7, r7, #2155905152	; 0x80808080
 8002d46:	f006 3680 	and.w	r6, r6, #2155905152	; 0x80808080
 8002d4a:	f103 3376 	add.w	r3, r3, #1987475062	; 0x76767676
 8002d4e:	f1b8 0f03 	cmp.w	r8, #3
 8002d52:	ea87 0709 	eor.w	r7, r7, r9
 8002d56:	ea83 0306 	eor.w	r3, r3, r6
  while (number >= 10U)
 8002d5a:	f040 820d 	bne.w	8003178 <HAL_RTC_SetTime+0x4ec>
    number -= 10U;
 8002d5e:	f087 33f6 	eor.w	r3, r7, #4143380214	; 0xf6f6f6f6
 8002d62:	f007 377f 	and.w	r7, r7, #2139062143	; 0x7f7f7f7f
 8002d66:	f107 3776 	add.w	r7, r7, #1987475062	; 0x76767676
 8002d6a:	f003 3380 	and.w	r3, r3, #2155905152	; 0x80808080
 8002d6e:	407b      	eors	r3, r7
    bcdhigh++;
 8002d70:	2718      	movs	r7, #24
 8002d72:	f00e 0638 	and.w	r6, lr, #56	; 0x38
 8002d76:	ebc6 1846 	rsb	r8, r6, r6, lsl #5
 8002d7a:	ebc6 0888 	rsb	r8, r6, r8, lsl #2
 8002d7e:	eb0c 0c48 	add.w	ip, ip, r8, lsl #1
 8002d82:	45b6      	cmp	lr, r6
 8002d84:	ea4f 6313 	mov.w	r3, r3, lsr #24
 8002d88:	fa5f fc8c 	uxtb.w	ip, ip
 8002d8c:	d035      	beq.n	8002dfa <HAL_RTC_SetTime+0x16e>
 8002d8e:	f1ac 030a 	sub.w	r3, ip, #10
    number -= 10U;
 8002d92:	b2db      	uxtb	r3, r3
  while (number >= 10U)
 8002d94:	2b09      	cmp	r3, #9
    bcdhigh++;
 8002d96:	f106 0701 	add.w	r7, r6, #1
  while (number >= 10U)
 8002d9a:	d92e      	bls.n	8002dfa <HAL_RTC_SetTime+0x16e>
    number -= 10U;
 8002d9c:	f1ac 0314 	sub.w	r3, ip, #20
 8002da0:	b2db      	uxtb	r3, r3
  while (number >= 10U)
 8002da2:	2b09      	cmp	r3, #9
    bcdhigh++;
 8002da4:	f106 0702 	add.w	r7, r6, #2
  while (number >= 10U)
 8002da8:	d927      	bls.n	8002dfa <HAL_RTC_SetTime+0x16e>
    number -= 10U;
 8002daa:	f1ac 031e 	sub.w	r3, ip, #30
 8002dae:	b2db      	uxtb	r3, r3
  while (number >= 10U)
 8002db0:	2b09      	cmp	r3, #9
    bcdhigh++;
 8002db2:	f106 0703 	add.w	r7, r6, #3
  while (number >= 10U)
 8002db6:	d920      	bls.n	8002dfa <HAL_RTC_SetTime+0x16e>
    number -= 10U;
 8002db8:	f1ac 0328 	sub.w	r3, ip, #40	; 0x28
 8002dbc:	b2db      	uxtb	r3, r3
  while (number >= 10U)
 8002dbe:	2b09      	cmp	r3, #9
    bcdhigh++;
 8002dc0:	f106 0704 	add.w	r7, r6, #4
  while (number >= 10U)
 8002dc4:	d919      	bls.n	8002dfa <HAL_RTC_SetTime+0x16e>
    number -= 10U;
 8002dc6:	f1ac 0332 	sub.w	r3, ip, #50	; 0x32
 8002dca:	b2db      	uxtb	r3, r3
  while (number >= 10U)
 8002dcc:	2b09      	cmp	r3, #9
    bcdhigh++;
 8002dce:	f106 0705 	add.w	r7, r6, #5
  while (number >= 10U)
 8002dd2:	d912      	bls.n	8002dfa <HAL_RTC_SetTime+0x16e>
    number -= 10U;
 8002dd4:	f1ac 033c 	sub.w	r3, ip, #60	; 0x3c
 8002dd8:	b2db      	uxtb	r3, r3
  while (number >= 10U)
 8002dda:	2b09      	cmp	r3, #9
    bcdhigh++;
 8002ddc:	f106 0706 	add.w	r7, r6, #6
  while (number >= 10U)
 8002de0:	d90b      	bls.n	8002dfa <HAL_RTC_SetTime+0x16e>
    number -= 10U;
 8002de2:	f1ac 0346 	sub.w	r3, ip, #70	; 0x46
 8002de6:	b2db      	uxtb	r3, r3
  while (number >= 10U)
 8002de8:	2b09      	cmp	r3, #9
    bcdhigh++;
 8002dea:	f106 0707 	add.w	r7, r6, #7
  while (number >= 10U)
 8002dee:	d904      	bls.n	8002dfa <HAL_RTC_SetTime+0x16e>
    number -= 10U;
 8002df0:	f1ac 0350 	sub.w	r3, ip, #80	; 0x50
    bcdhigh++;
 8002df4:	f106 0708 	add.w	r7, r6, #8
    number -= 10U;
 8002df8:	b2db      	uxtb	r3, r3
  }

  return ((uint8_t)(bcdhigh << 4U) | number);
 8002dfa:	ea43 1307 	orr.w	r3, r3, r7, lsl #4
 8002dfe:	fa5f fc83 	uxtb.w	ip, r3
                        ( (uint32_t)RTC_ByteToBcd2(sTime->Minutes) << RTC_TR_MNU_Pos) | \
 8002e02:	7866      	ldrb	r6, [r4, #1]
  while (number >= 10U)
 8002e04:	2e09      	cmp	r6, #9
    tmpreg = (uint32_t)(( (uint32_t)RTC_ByteToBcd2(sTime->Hours)   << RTC_TR_HU_Pos)  | \
 8002e06:	ea4f 4c0c 	mov.w	ip, ip, lsl #16
  while (number >= 10U)
 8002e0a:	f240 809f 	bls.w	8002f4c <HAL_RTC_SetTime+0x2c0>
 8002e0e:	4f87      	ldr	r7, [pc, #540]	; (800302c <HAL_RTC_SetTime+0x3a0>)
 8002e10:	f1a6 030a 	sub.w	r3, r6, #10
 8002e14:	fa5f fe83 	uxtb.w	lr, r3
 8002e18:	fba7 870e 	umull	r8, r7, r7, lr
 8002e1c:	08ff      	lsrs	r7, r7, #3
 8002e1e:	f1be 0f4f 	cmp.w	lr, #79	; 0x4f
 8002e22:	f107 0701 	add.w	r7, r7, #1
 8002e26:	f240 81b8 	bls.w	800319a <HAL_RTC_SetTime+0x50e>
 8002e2a:	f1a6 0e28 	sub.w	lr, r6, #40	; 0x28
 8002e2e:	2300      	movs	r3, #0
 8002e30:	f36e 0307 	bfi	r3, lr, #0, #8
 8002e34:	f1a6 0e32 	sub.w	lr, r6, #50	; 0x32
 8002e38:	f36e 230f 	bfi	r3, lr, #8, #8
 8002e3c:	f1a6 0e3c 	sub.w	lr, r6, #60	; 0x3c
 8002e40:	f36e 4317 	bfi	r3, lr, #16, #8
 8002e44:	f1a6 0e46 	sub.w	lr, r6, #70	; 0x46
 8002e48:	f36e 631f 	bfi	r3, lr, #24, #8
 8002e4c:	f003 387f 	and.w	r8, r3, #2139062143	; 0x7f7f7f7f
 8002e50:	f083 3eb0 	eor.w	lr, r3, #2964369584	; 0xb0b0b0b0
    number -= 10U;
 8002e54:	f083 33f6 	eor.w	r3, r3, #4143380214	; 0xf6f6f6f6
 8002e58:	f108 3930 	add.w	r9, r8, #808464432	; 0x30303030
 8002e5c:	f003 3380 	and.w	r3, r3, #2155905152	; 0x80808080
 8002e60:	f108 3876 	add.w	r8, r8, #1987475062	; 0x76767676
 8002e64:	ea83 0308 	eor.w	r3, r3, r8
 8002e68:	ea4f 08d7 	mov.w	r8, r7, lsr #3
 8002e6c:	f00e 3e80 	and.w	lr, lr, #2155905152	; 0x80808080
 8002e70:	f1b8 0f01 	cmp.w	r8, #1
 8002e74:	ea8e 0e09 	eor.w	lr, lr, r9
  while (number >= 10U)
 8002e78:	f000 8185 	beq.w	8003186 <HAL_RTC_SetTime+0x4fa>
 8002e7c:	f00e 397f 	and.w	r9, lr, #2139062143	; 0x7f7f7f7f
 8002e80:	f08e 3ab0 	eor.w	sl, lr, #2964369584	; 0xb0b0b0b0
    number -= 10U;
 8002e84:	f08e 33f6 	eor.w	r3, lr, #4143380214	; 0xf6f6f6f6
 8002e88:	f003 3380 	and.w	r3, r3, #2155905152	; 0x80808080
 8002e8c:	f00a 3e80 	and.w	lr, sl, #2155905152	; 0x80808080
 8002e90:	f1b8 0f03 	cmp.w	r8, #3
 8002e94:	f109 3a30 	add.w	sl, r9, #808464432	; 0x30303030
 8002e98:	f109 3976 	add.w	r9, r9, #1987475062	; 0x76767676
 8002e9c:	ea8e 0e0a 	eor.w	lr, lr, sl
 8002ea0:	ea83 0309 	eor.w	r3, r3, r9
  while (number >= 10U)
 8002ea4:	f040 8165 	bne.w	8003172 <HAL_RTC_SetTime+0x4e6>
    number -= 10U;
 8002ea8:	f00e 337f 	and.w	r3, lr, #2139062143	; 0x7f7f7f7f
 8002eac:	f08e 3ef6 	eor.w	lr, lr, #4143380214	; 0xf6f6f6f6
 8002eb0:	f103 3376 	add.w	r3, r3, #1987475062	; 0x76767676
 8002eb4:	f00e 3e80 	and.w	lr, lr, #2155905152	; 0x80808080
 8002eb8:	ea83 030e 	eor.w	r3, r3, lr
    bcdhigh++;
 8002ebc:	f04f 0818 	mov.w	r8, #24
 8002ec0:	f007 0e38 	and.w	lr, r7, #56	; 0x38
 8002ec4:	ebce 194e 	rsb	r9, lr, lr, lsl #5
 8002ec8:	ebce 0989 	rsb	r9, lr, r9, lsl #2
 8002ecc:	eb06 0649 	add.w	r6, r6, r9, lsl #1
 8002ed0:	4577      	cmp	r7, lr
 8002ed2:	ea4f 6313 	mov.w	r3, r3, lsr #24
 8002ed6:	b2f6      	uxtb	r6, r6
 8002ed8:	d035      	beq.n	8002f46 <HAL_RTC_SetTime+0x2ba>
 8002eda:	f1a6 030a 	sub.w	r3, r6, #10
    number -= 10U;
 8002ede:	b2db      	uxtb	r3, r3
  while (number >= 10U)
 8002ee0:	2b09      	cmp	r3, #9
    bcdhigh++;
 8002ee2:	f10e 0801 	add.w	r8, lr, #1
  while (number >= 10U)
 8002ee6:	d92e      	bls.n	8002f46 <HAL_RTC_SetTime+0x2ba>
    number -= 10U;
 8002ee8:	f1a6 0314 	sub.w	r3, r6, #20
 8002eec:	b2db      	uxtb	r3, r3
  while (number >= 10U)
 8002eee:	2b09      	cmp	r3, #9
    bcdhigh++;
 8002ef0:	f10e 0802 	add.w	r8, lr, #2
  while (number >= 10U)
 8002ef4:	d927      	bls.n	8002f46 <HAL_RTC_SetTime+0x2ba>
    number -= 10U;
 8002ef6:	f1a6 031e 	sub.w	r3, r6, #30
 8002efa:	b2db      	uxtb	r3, r3
  while (number >= 10U)
 8002efc:	2b09      	cmp	r3, #9
    bcdhigh++;
 8002efe:	f10e 0803 	add.w	r8, lr, #3
  while (number >= 10U)
 8002f02:	d920      	bls.n	8002f46 <HAL_RTC_SetTime+0x2ba>
    number -= 10U;
 8002f04:	f1a6 0328 	sub.w	r3, r6, #40	; 0x28
 8002f08:	b2db      	uxtb	r3, r3
  while (number >= 10U)
 8002f0a:	2b09      	cmp	r3, #9
    bcdhigh++;
 8002f0c:	f10e 0804 	add.w	r8, lr, #4
  while (number >= 10U)
 8002f10:	d919      	bls.n	8002f46 <HAL_RTC_SetTime+0x2ba>
    number -= 10U;
 8002f12:	f1a6 0332 	sub.w	r3, r6, #50	; 0x32
 8002f16:	b2db      	uxtb	r3, r3
  while (number >= 10U)
 8002f18:	2b09      	cmp	r3, #9
    bcdhigh++;
 8002f1a:	f10e 0805 	add.w	r8, lr, #5
  while (number >= 10U)
 8002f1e:	d912      	bls.n	8002f46 <HAL_RTC_SetTime+0x2ba>
    number -= 10U;
 8002f20:	f1a6 033c 	sub.w	r3, r6, #60	; 0x3c
 8002f24:	b2db      	uxtb	r3, r3
  while (number >= 10U)
 8002f26:	2b09      	cmp	r3, #9
    bcdhigh++;
 8002f28:	f10e 0806 	add.w	r8, lr, #6
  while (number >= 10U)
 8002f2c:	d90b      	bls.n	8002f46 <HAL_RTC_SetTime+0x2ba>
    number -= 10U;
 8002f2e:	f1a6 0346 	sub.w	r3, r6, #70	; 0x46
 8002f32:	b2db      	uxtb	r3, r3
  while (number >= 10U)
 8002f34:	2b09      	cmp	r3, #9
    bcdhigh++;
 8002f36:	f10e 0807 	add.w	r8, lr, #7
  while (number >= 10U)
 8002f3a:	d904      	bls.n	8002f46 <HAL_RTC_SetTime+0x2ba>
    number -= 10U;
 8002f3c:	f1a6 0350 	sub.w	r3, r6, #80	; 0x50
    bcdhigh++;
 8002f40:	f10e 0808 	add.w	r8, lr, #8
    number -= 10U;
 8002f44:	b2db      	uxtb	r3, r3
  return ((uint8_t)(bcdhigh << 4U) | number);
 8002f46:	ea43 1308 	orr.w	r3, r3, r8, lsl #4
 8002f4a:	b2de      	uxtb	r6, r3
                        ( (uint32_t)RTC_ByteToBcd2(sTime->Seconds))                   | \
 8002f4c:	f894 e002 	ldrb.w	lr, [r4, #2]
  while (number >= 10U)
 8002f50:	f1be 0f09 	cmp.w	lr, #9
                        ( (uint32_t)RTC_ByteToBcd2(sTime->Minutes) << RTC_TR_MNU_Pos) | \
 8002f54:	ea4f 2606 	mov.w	r6, r6, lsl #8
  while (number >= 10U)
 8002f58:	f240 80a2 	bls.w	80030a0 <HAL_RTC_SetTime+0x414>
 8002f5c:	4f33      	ldr	r7, [pc, #204]	; (800302c <HAL_RTC_SetTime+0x3a0>)
 8002f5e:	f1ae 030a 	sub.w	r3, lr, #10
 8002f62:	fa5f f883 	uxtb.w	r8, r3
 8002f66:	fba7 9708 	umull	r9, r7, r7, r8
 8002f6a:	08ff      	lsrs	r7, r7, #3
 8002f6c:	f1b8 0f4f 	cmp.w	r8, #79	; 0x4f
 8002f70:	f107 0701 	add.w	r7, r7, #1
 8002f74:	d95c      	bls.n	8003030 <HAL_RTC_SetTime+0x3a4>
 8002f76:	f1ae 0228 	sub.w	r2, lr, #40	; 0x28
 8002f7a:	2300      	movs	r3, #0
 8002f7c:	f362 0307 	bfi	r3, r2, #0, #8
 8002f80:	f1ae 0232 	sub.w	r2, lr, #50	; 0x32
 8002f84:	f362 230f 	bfi	r3, r2, #8, #8
 8002f88:	f1ae 023c 	sub.w	r2, lr, #60	; 0x3c
 8002f8c:	f362 4317 	bfi	r3, r2, #16, #8
 8002f90:	f1ae 0246 	sub.w	r2, lr, #70	; 0x46
 8002f94:	f362 631f 	bfi	r3, r2, #24, #8
 8002f98:	f003 387f 	and.w	r8, r3, #2139062143	; 0x7f7f7f7f
 8002f9c:	f083 32b0 	eor.w	r2, r3, #2964369584	; 0xb0b0b0b0
    number -= 10U;
 8002fa0:	f083 33f6 	eor.w	r3, r3, #4143380214	; 0xf6f6f6f6
 8002fa4:	f108 3930 	add.w	r9, r8, #808464432	; 0x30303030
 8002fa8:	f003 3380 	and.w	r3, r3, #2155905152	; 0x80808080
 8002fac:	f108 3876 	add.w	r8, r8, #1987475062	; 0x76767676
 8002fb0:	ea83 0308 	eor.w	r3, r3, r8
 8002fb4:	ea4f 08d7 	mov.w	r8, r7, lsr #3
 8002fb8:	f002 3280 	and.w	r2, r2, #2155905152	; 0x80808080
 8002fbc:	f1b8 0f01 	cmp.w	r8, #1
 8002fc0:	ea82 0209 	eor.w	r2, r2, r9
  while (number >= 10U)
 8002fc4:	f000 80dc 	beq.w	8003180 <HAL_RTC_SetTime+0x4f4>
 8002fc8:	f002 397f 	and.w	r9, r2, #2139062143	; 0x7f7f7f7f
 8002fcc:	f082 3ab0 	eor.w	sl, r2, #2964369584	; 0xb0b0b0b0
    number -= 10U;
 8002fd0:	f082 32f6 	eor.w	r2, r2, #4143380214	; 0xf6f6f6f6
 8002fd4:	f002 3380 	and.w	r3, r2, #2155905152	; 0x80808080
 8002fd8:	f00a 3a80 	and.w	sl, sl, #2155905152	; 0x80808080
 8002fdc:	f109 3230 	add.w	r2, r9, #808464432	; 0x30303030
 8002fe0:	f1b8 0f03 	cmp.w	r8, #3
 8002fe4:	f109 3976 	add.w	r9, r9, #1987475062	; 0x76767676
 8002fe8:	ea8a 0202 	eor.w	r2, sl, r2
 8002fec:	ea83 0309 	eor.w	r3, r3, r9
  while (number >= 10U)
 8002ff0:	f040 80bc 	bne.w	800316c <HAL_RTC_SetTime+0x4e0>
    number -= 10U;
 8002ff4:	f082 33f6 	eor.w	r3, r2, #4143380214	; 0xf6f6f6f6
 8002ff8:	f002 327f 	and.w	r2, r2, #2139062143	; 0x7f7f7f7f
 8002ffc:	f003 3380 	and.w	r3, r3, #2155905152	; 0x80808080
 8003000:	f102 3276 	add.w	r2, r2, #1987475062	; 0x76767676
 8003004:	4053      	eors	r3, r2
    bcdhigh++;
 8003006:	f04f 0818 	mov.w	r8, #24
 800300a:	f007 0238 	and.w	r2, r7, #56	; 0x38
 800300e:	ebc2 1942 	rsb	r9, r2, r2, lsl #5
 8003012:	ebc2 0989 	rsb	r9, r2, r9, lsl #2
 8003016:	eb0e 0e49 	add.w	lr, lr, r9, lsl #1
 800301a:	42ba      	cmp	r2, r7
 800301c:	ea4f 6313 	mov.w	r3, r3, lsr #24
 8003020:	fa5f fe8e 	uxtb.w	lr, lr
 8003024:	d038      	beq.n	8003098 <HAL_RTC_SetTime+0x40c>
 8003026:	f1ae 030a 	sub.w	r3, lr, #10
 800302a:	e001      	b.n	8003030 <HAL_RTC_SetTime+0x3a4>
 800302c:	cccccccd 	.word	0xcccccccd
    number -= 10U;
 8003030:	b2db      	uxtb	r3, r3
  while (number >= 10U)
 8003032:	2b09      	cmp	r3, #9
    bcdhigh++;
 8003034:	f102 0801 	add.w	r8, r2, #1
  while (number >= 10U)
 8003038:	d92e      	bls.n	8003098 <HAL_RTC_SetTime+0x40c>
    number -= 10U;
 800303a:	f1ae 0314 	sub.w	r3, lr, #20
 800303e:	b2db      	uxtb	r3, r3
  while (number >= 10U)
 8003040:	2b09      	cmp	r3, #9
    bcdhigh++;
 8003042:	f102 0802 	add.w	r8, r2, #2
  while (number >= 10U)
 8003046:	d927      	bls.n	8003098 <HAL_RTC_SetTime+0x40c>
    number -= 10U;
 8003048:	f1ae 031e 	sub.w	r3, lr, #30
 800304c:	b2db      	uxtb	r3, r3
  while (number >= 10U)
 800304e:	2b09      	cmp	r3, #9
    bcdhigh++;
 8003050:	f102 0803 	add.w	r8, r2, #3
  while (number >= 10U)
 8003054:	d920      	bls.n	8003098 <HAL_RTC_SetTime+0x40c>
    number -= 10U;
 8003056:	f1ae 0328 	sub.w	r3, lr, #40	; 0x28
 800305a:	b2db      	uxtb	r3, r3
  while (number >= 10U)
 800305c:	2b09      	cmp	r3, #9
    bcdhigh++;
 800305e:	f102 0804 	add.w	r8, r2, #4
  while (number >= 10U)
 8003062:	d919      	bls.n	8003098 <HAL_RTC_SetTime+0x40c>
    number -= 10U;
 8003064:	f1ae 0332 	sub.w	r3, lr, #50	; 0x32
 8003068:	b2db      	uxtb	r3, r3
  while (number >= 10U)
 800306a:	2b09      	cmp	r3, #9
    bcdhigh++;
 800306c:	f102 0805 	add.w	r8, r2, #5
  while (number >= 10U)
 8003070:	d912      	bls.n	8003098 <HAL_RTC_SetTime+0x40c>
    number -= 10U;
 8003072:	f1ae 033c 	sub.w	r3, lr, #60	; 0x3c
 8003076:	b2db      	uxtb	r3, r3
  while (number >= 10U)
 8003078:	2b09      	cmp	r3, #9
    bcdhigh++;
 800307a:	f102 0806 	add.w	r8, r2, #6
  while (number >= 10U)
 800307e:	d90b      	bls.n	8003098 <HAL_RTC_SetTime+0x40c>
    number -= 10U;
 8003080:	f1ae 0346 	sub.w	r3, lr, #70	; 0x46
 8003084:	b2db      	uxtb	r3, r3
  while (number >= 10U)
 8003086:	2b09      	cmp	r3, #9
    bcdhigh++;
 8003088:	f102 0807 	add.w	r8, r2, #7
  while (number >= 10U)
 800308c:	d904      	bls.n	8003098 <HAL_RTC_SetTime+0x40c>
    number -= 10U;
 800308e:	f1ae 0350 	sub.w	r3, lr, #80	; 0x50
    bcdhigh++;
 8003092:	f102 0808 	add.w	r8, r2, #8
    number -= 10U;
 8003096:	b2db      	uxtb	r3, r3
  return ((uint8_t)(bcdhigh << 4U) | number);
 8003098:	ea43 1308 	orr.w	r3, r3, r8, lsl #4
 800309c:	fa5f fe83 	uxtb.w	lr, r3
    tmpreg = (uint32_t)(( (uint32_t)RTC_ByteToBcd2(sTime->Hours)   << RTC_TR_HU_Pos)  | \
 80030a0:	ea4c 0c00 	orr.w	ip, ip, r0
 80030a4:	ea4c 0606 	orr.w	r6, ip, r6
 80030a8:	ea46 060e 	orr.w	r6, r6, lr
 80030ac:	e010      	b.n	80030d0 <HAL_RTC_SetTime+0x444>
    if ((hrtc->Instance->CR & RTC_CR_FMT) != 0U)
 80030ae:	688b      	ldr	r3, [r1, #8]
              ((uint32_t)(sTime->Minutes)    << RTC_TR_MNU_Pos) | \
 80030b0:	7866      	ldrb	r6, [r4, #1]
    tmpreg = (((uint32_t)(sTime->Hours)      << RTC_TR_HU_Pos)  | \
 80030b2:	7822      	ldrb	r2, [r4, #0]
    if ((hrtc->Instance->CR & RTC_CR_FMT) != 0U)
 80030b4:	f013 0340 	ands.w	r3, r3, #64	; 0x40
              ((uint32_t)(sTime->Minutes)    << RTC_TR_MNU_Pos) | \
 80030b8:	ea4f 2606 	mov.w	r6, r6, lsl #8
              ((uint32_t)(sTime->TimeFormat) << RTC_TR_PM_Pos));
 80030bc:	bf14      	ite	ne
 80030be:	78e3      	ldrbne	r3, [r4, #3]
      sTime->TimeFormat = 0x00U;
 80030c0:	70e3      	strbeq	r3, [r4, #3]
    tmpreg = (((uint32_t)(sTime->Hours)      << RTC_TR_HU_Pos)  | \
 80030c2:	ea46 4602 	orr.w	r6, r6, r2, lsl #16
              ((uint32_t) sTime->Seconds)                       | \
 80030c6:	78a2      	ldrb	r2, [r4, #2]
              ((uint32_t)(sTime->TimeFormat) << RTC_TR_PM_Pos));
 80030c8:	bf18      	it	ne
 80030ca:	059b      	lslne	r3, r3, #22
              ((uint32_t)(sTime->Minutes)    << RTC_TR_MNU_Pos) | \
 80030cc:	4316      	orrs	r6, r2
    tmpreg = (((uint32_t)(sTime->Hours)      << RTC_TR_HU_Pos)  | \
 80030ce:	431e      	orrs	r6, r3
  __HAL_RTC_WRITEPROTECTION_DISABLE(hrtc);
 80030d0:	23ca      	movs	r3, #202	; 0xca
 80030d2:	624b      	str	r3, [r1, #36]	; 0x24
 80030d4:	2353      	movs	r3, #83	; 0x53
 80030d6:	624b      	str	r3, [r1, #36]	; 0x24
  if (READ_BIT(hrtc->Instance->ISR, RTC_ISR_INITF) == 0U)
 80030d8:	68cb      	ldr	r3, [r1, #12]
 80030da:	065f      	lsls	r7, r3, #25
 80030dc:	d51e      	bpl.n	800311c <HAL_RTC_SetTime+0x490>
    hrtc->Instance->TR = (uint32_t)(tmpreg & RTC_TR_RESERVED_MASK);
 80030de:	f006 367f 	and.w	r6, r6, #2139062143	; 0x7f7f7f7f
 80030e2:	f026 46fe 	bic.w	r6, r6, #2130706432	; 0x7f000000
 80030e6:	600e      	str	r6, [r1, #0]
    hrtc->Instance->CR &= (uint32_t)~RTC_CR_BKP;
 80030e8:	688a      	ldr	r2, [r1, #8]
    hrtc->Instance->CR |= (uint32_t)(sTime->DayLightSaving | sTime->StoreOperation);
 80030ea:	68e3      	ldr	r3, [r4, #12]
    hrtc->Instance->CR &= (uint32_t)~RTC_CR_BKP;
 80030ec:	f422 2280 	bic.w	r2, r2, #262144	; 0x40000
 80030f0:	608a      	str	r2, [r1, #8]
    hrtc->Instance->CR |= (uint32_t)(sTime->DayLightSaving | sTime->StoreOperation);
 80030f2:	6922      	ldr	r2, [r4, #16]
 80030f4:	4313      	orrs	r3, r2
 80030f6:	688a      	ldr	r2, [r1, #8]
 80030f8:	4313      	orrs	r3, r2
 80030fa:	608b      	str	r3, [r1, #8]
  CLEAR_BIT(hrtc->Instance->ISR, RTC_ISR_INIT);
 80030fc:	68cb      	ldr	r3, [r1, #12]
 80030fe:	f023 0380 	bic.w	r3, r3, #128	; 0x80
 8003102:	60cb      	str	r3, [r1, #12]
  if (READ_BIT(hrtc->Instance->CR, RTC_CR_BYPSHAD) == 0U)
 8003104:	688b      	ldr	r3, [r1, #8]
 8003106:	069a      	lsls	r2, r3, #26
 8003108:	d51f      	bpl.n	800314a <HAL_RTC_SetTime+0x4be>
    hrtc->State = HAL_RTC_STATE_READY;
 800310a:	2301      	movs	r3, #1
 800310c:	776b      	strb	r3, [r5, #29]
 800310e:	2000      	movs	r0, #0
  __HAL_RTC_WRITEPROTECTION_ENABLE(hrtc);
 8003110:	22ff      	movs	r2, #255	; 0xff
  __HAL_UNLOCK(hrtc);
 8003112:	2300      	movs	r3, #0
  __HAL_RTC_WRITEPROTECTION_ENABLE(hrtc);
 8003114:	624a      	str	r2, [r1, #36]	; 0x24
  __HAL_UNLOCK(hrtc);
 8003116:	772b      	strb	r3, [r5, #28]
}
 8003118:	e8bd 87f0 	ldmia.w	sp!, {r4, r5, r6, r7, r8, r9, sl, pc}
    SET_BIT(hrtc->Instance->ISR, RTC_ISR_INIT);
 800311c:	68cb      	ldr	r3, [r1, #12]
 800311e:	f043 0380 	orr.w	r3, r3, #128	; 0x80
 8003122:	60cb      	str	r3, [r1, #12]
    tickstart = HAL_GetTick();
 8003124:	f7ff f830 	bl	8002188 <HAL_GetTick>
 8003128:	4607      	mov	r7, r0
    while ((READ_BIT(hrtc->Instance->ISR, RTC_ISR_INITF) == 0U) && (status != HAL_ERROR))
 800312a:	6829      	ldr	r1, [r5, #0]
 800312c:	68cb      	ldr	r3, [r1, #12]
 800312e:	0658      	lsls	r0, r3, #25
 8003130:	d4d5      	bmi.n	80030de <HAL_RTC_SetTime+0x452>
      if ((HAL_GetTick() - tickstart) > RTC_TIMEOUT_VALUE)
 8003132:	f7ff f829 	bl	8002188 <HAL_GetTick>
 8003136:	1bc0      	subs	r0, r0, r7
 8003138:	f5b0 7f7a 	cmp.w	r0, #1000	; 0x3e8
 800313c:	d9f5      	bls.n	800312a <HAL_RTC_SetTime+0x49e>
        hrtc->State = HAL_RTC_STATE_ERROR;
 800313e:	2304      	movs	r3, #4
    while ((READ_BIT(hrtc->Instance->ISR, RTC_ISR_INITF) == 0U) && (status != HAL_ERROR))
 8003140:	6829      	ldr	r1, [r5, #0]
        hrtc->State = HAL_RTC_STATE_ERROR;
 8003142:	776b      	strb	r3, [r5, #29]
    while ((READ_BIT(hrtc->Instance->ISR, RTC_ISR_INITF) == 0U) && (status != HAL_ERROR))
 8003144:	68cb      	ldr	r3, [r1, #12]
 8003146:	2001      	movs	r0, #1
 8003148:	e7e2      	b.n	8003110 <HAL_RTC_SetTime+0x484>
  hrtc->Instance->ISR = ((uint32_t)(RTC_RSF_MASK & RTC_ISR_RESERVED_MASK));
 800314a:	4b16      	ldr	r3, [pc, #88]	; (80031a4 <HAL_RTC_SetTime+0x518>)
 800314c:	60cb      	str	r3, [r1, #12]
  tickstart = HAL_GetTick();
 800314e:	f7ff f81b 	bl	8002188 <HAL_GetTick>
 8003152:	4604      	mov	r4, r0
  while ((hrtc->Instance->ISR & RTC_ISR_RSF) == 0U)
 8003154:	e005      	b.n	8003162 <HAL_RTC_SetTime+0x4d6>
    if ((HAL_GetTick() - tickstart) > RTC_TIMEOUT_VALUE)
 8003156:	f7ff f817 	bl	8002188 <HAL_GetTick>
 800315a:	1b00      	subs	r0, r0, r4
 800315c:	f5b0 7f7a 	cmp.w	r0, #1000	; 0x3e8
 8003160:	d816      	bhi.n	8003190 <HAL_RTC_SetTime+0x504>
  while ((hrtc->Instance->ISR & RTC_ISR_RSF) == 0U)
 8003162:	6829      	ldr	r1, [r5, #0]
 8003164:	68cb      	ldr	r3, [r1, #12]
 8003166:	069b      	lsls	r3, r3, #26
 8003168:	d5f5      	bpl.n	8003156 <HAL_RTC_SetTime+0x4ca>
 800316a:	e7ce      	b.n	800310a <HAL_RTC_SetTime+0x47e>
    bcdhigh++;
 800316c:	f04f 0810 	mov.w	r8, #16
 8003170:	e74b      	b.n	800300a <HAL_RTC_SetTime+0x37e>
 8003172:	f04f 0810 	mov.w	r8, #16
 8003176:	e6a3      	b.n	8002ec0 <HAL_RTC_SetTime+0x234>
 8003178:	2710      	movs	r7, #16
 800317a:	e5fa      	b.n	8002d72 <HAL_RTC_SetTime+0xe6>
  __HAL_LOCK(hrtc);
 800317c:	2002      	movs	r0, #2
}
 800317e:	4770      	bx	lr
    bcdhigh++;
 8003180:	f04f 0808 	mov.w	r8, #8
 8003184:	e741      	b.n	800300a <HAL_RTC_SetTime+0x37e>
 8003186:	f04f 0808 	mov.w	r8, #8
 800318a:	e699      	b.n	8002ec0 <HAL_RTC_SetTime+0x234>
 800318c:	2708      	movs	r7, #8
 800318e:	e5f0      	b.n	8002d72 <HAL_RTC_SetTime+0xe6>
      hrtc->State = HAL_RTC_STATE_ERROR;
 8003190:	2304      	movs	r3, #4
  __HAL_RTC_WRITEPROTECTION_ENABLE(hrtc);
 8003192:	6829      	ldr	r1, [r5, #0]
      hrtc->State = HAL_RTC_STATE_ERROR;
 8003194:	776b      	strb	r3, [r5, #29]
      status = HAL_ERROR;
 8003196:	2001      	movs	r0, #1
 8003198:	e7ba      	b.n	8003110 <HAL_RTC_SetTime+0x484>
  uint32_t bcdhigh = 0U;
 800319a:	f04f 0e00 	mov.w	lr, #0
 800319e:	e69e      	b.n	8002ede <HAL_RTC_SetTime+0x252>
 80031a0:	2600      	movs	r6, #0
 80031a2:	e5f6      	b.n	8002d92 <HAL_RTC_SetTime+0x106>
 80031a4:	00017f5f 	.word	0x00017f5f

080031a8 <HAL_RTC_SetDate>:
  __HAL_LOCK(hrtc);
 80031a8:	7f03      	ldrb	r3, [r0, #28]
 80031aa:	2b01      	cmp	r3, #1
 80031ac:	f000 8257 	beq.w	800365e <HAL_RTC_SetDate+0x4b6>
{
 80031b0:	e92d 41f0 	stmdb	sp!, {r4, r5, r6, r7, r8, lr}
 80031b4:	4604      	mov	r4, r0
  hrtc->State = HAL_RTC_STATE_BUSY;
 80031b6:	2302      	movs	r3, #2
  __HAL_LOCK(hrtc);
 80031b8:	2001      	movs	r0, #1
 80031ba:	7720      	strb	r0, [r4, #28]
  hrtc->State = HAL_RTC_STATE_BUSY;
 80031bc:	7763      	strb	r3, [r4, #29]
  if ((Format == RTC_FORMAT_BIN) && ((sDate->Month & 0x10U) == 0x10U))
 80031be:	b342      	cbz	r2, 8003212 <HAL_RTC_SetDate+0x6a>
                  (((uint32_t)sDate->Month)   << RTC_DR_MU_Pos) | \
 80031c0:	784d      	ldrb	r5, [r1, #1]
    datetmpreg = ((((uint32_t)sDate->Year)    << RTC_DR_YU_Pos) | \
 80031c2:	78c8      	ldrb	r0, [r1, #3]
                  ((uint32_t) sDate->Date)                      | \
 80031c4:	788a      	ldrb	r2, [r1, #2]
                  (((uint32_t)sDate->WeekDay) << RTC_DR_WDU_Pos));
 80031c6:	780b      	ldrb	r3, [r1, #0]
                  (((uint32_t)sDate->Month)   << RTC_DR_MU_Pos) | \
 80031c8:	022d      	lsls	r5, r5, #8
    datetmpreg = ((((uint32_t)sDate->Year)    << RTC_DR_YU_Pos) | \
 80031ca:	ea45 4500 	orr.w	r5, r5, r0, lsl #16
                  (((uint32_t)sDate->Month)   << RTC_DR_MU_Pos) | \
 80031ce:	4315      	orrs	r5, r2
    datetmpreg = ((((uint32_t)sDate->Year)    << RTC_DR_YU_Pos) | \
 80031d0:	ea45 3543 	orr.w	r5, r5, r3, lsl #13
  __HAL_RTC_WRITEPROTECTION_DISABLE(hrtc);
 80031d4:	6823      	ldr	r3, [r4, #0]
 80031d6:	2253      	movs	r2, #83	; 0x53
 80031d8:	21ca      	movs	r1, #202	; 0xca
 80031da:	6259      	str	r1, [r3, #36]	; 0x24
 80031dc:	625a      	str	r2, [r3, #36]	; 0x24
  if (READ_BIT(hrtc->Instance->ISR, RTC_ISR_INITF) == 0U)
 80031de:	68da      	ldr	r2, [r3, #12]
 80031e0:	0656      	lsls	r6, r2, #25
 80031e2:	f140 8206 	bpl.w	80035f2 <HAL_RTC_SetDate+0x44a>
    hrtc->Instance->DR = (uint32_t)(datetmpreg & RTC_DR_RESERVED_MASK);
 80031e6:	f025 457f 	bic.w	r5, r5, #4278190080	; 0xff000000
 80031ea:	f025 05c0 	bic.w	r5, r5, #192	; 0xc0
 80031ee:	605d      	str	r5, [r3, #4]
  CLEAR_BIT(hrtc->Instance->ISR, RTC_ISR_INIT);
 80031f0:	68da      	ldr	r2, [r3, #12]
 80031f2:	f022 0280 	bic.w	r2, r2, #128	; 0x80
 80031f6:	60da      	str	r2, [r3, #12]
  if (READ_BIT(hrtc->Instance->CR, RTC_CR_BYPSHAD) == 0U)
 80031f8:	689a      	ldr	r2, [r3, #8]
 80031fa:	0691      	lsls	r1, r2, #26
 80031fc:	f140 8218 	bpl.w	8003630 <HAL_RTC_SetDate+0x488>
    hrtc->State = HAL_RTC_STATE_READY;
 8003200:	2201      	movs	r2, #1
 8003202:	7762      	strb	r2, [r4, #29]
 8003204:	2000      	movs	r0, #0
  __HAL_RTC_WRITEPROTECTION_ENABLE(hrtc);
 8003206:	21ff      	movs	r1, #255	; 0xff
  __HAL_UNLOCK(hrtc);
 8003208:	2200      	movs	r2, #0
  __HAL_RTC_WRITEPROTECTION_ENABLE(hrtc);
 800320a:	6259      	str	r1, [r3, #36]	; 0x24
  __HAL_UNLOCK(hrtc);
 800320c:	7722      	strb	r2, [r4, #28]
}
 800320e:	e8bd 81f0 	ldmia.w	sp!, {r4, r5, r6, r7, r8, pc}
  if ((Format == RTC_FORMAT_BIN) && ((sDate->Month & 0x10U) == 0x10U))
 8003212:	7848      	ldrb	r0, [r1, #1]
 8003214:	06c7      	lsls	r7, r0, #27
 8003216:	f140 8204 	bpl.w	8003622 <HAL_RTC_SetDate+0x47a>
    datetmpreg = (((uint32_t)RTC_ByteToBcd2(sDate->Year)  << RTC_DR_YU_Pos) | \
 800321a:	f891 c003 	ldrb.w	ip, [r1, #3]
    sDate->Month = (uint8_t)((sDate->Month & (uint8_t)~(0x10U)) + (uint8_t)0x0AU);
 800321e:	f020 0010 	bic.w	r0, r0, #16
 8003222:	300a      	adds	r0, #10
 8003224:	b2c0      	uxtb	r0, r0
  while (number >= 10U)
 8003226:	f1bc 0f09 	cmp.w	ip, #9
    sDate->Month = (uint8_t)((sDate->Month & (uint8_t)~(0x10U)) + (uint8_t)0x0AU);
 800322a:	7048      	strb	r0, [r1, #1]
  while (number >= 10U)
 800322c:	f240 821f 	bls.w	800366e <HAL_RTC_SetDate+0x4c6>
 8003230:	4dcf      	ldr	r5, [pc, #828]	; (8003570 <HAL_RTC_SetDate+0x3c8>)
 8003232:	f1ac 030a 	sub.w	r3, ip, #10
 8003236:	b2de      	uxtb	r6, r3
 8003238:	fba5 7506 	umull	r7, r5, r5, r6
 800323c:	08ed      	lsrs	r5, r5, #3
 800323e:	2e4f      	cmp	r6, #79	; 0x4f
 8003240:	f105 0501 	add.w	r5, r5, #1
 8003244:	f240 821e 	bls.w	8003684 <HAL_RTC_SetDate+0x4dc>
 8003248:	f1ac 0628 	sub.w	r6, ip, #40	; 0x28
 800324c:	2300      	movs	r3, #0
 800324e:	f366 0307 	bfi	r3, r6, #0, #8
 8003252:	f1ac 0632 	sub.w	r6, ip, #50	; 0x32
 8003256:	f366 230f 	bfi	r3, r6, #8, #8
 800325a:	f1ac 063c 	sub.w	r6, ip, #60	; 0x3c
 800325e:	f366 4317 	bfi	r3, r6, #16, #8
 8003262:	f1ac 0646 	sub.w	r6, ip, #70	; 0x46
 8003266:	f366 631f 	bfi	r3, r6, #24, #8
 800326a:	f003 367f 	and.w	r6, r3, #2139062143	; 0x7f7f7f7f
 800326e:	f083 3eb0 	eor.w	lr, r3, #2964369584	; 0xb0b0b0b0
 8003272:	f106 3730 	add.w	r7, r6, #808464432	; 0x30303030
 8003276:	f00e 3e80 	and.w	lr, lr, #2155905152	; 0x80808080
    number -= 10U;
 800327a:	f083 33f6 	eor.w	r3, r3, #4143380214	; 0xf6f6f6f6
 800327e:	ea8e 0e07 	eor.w	lr, lr, r7
 8003282:	08ef      	lsrs	r7, r5, #3
 8003284:	f003 3380 	and.w	r3, r3, #2155905152	; 0x80808080
 8003288:	f106 3676 	add.w	r6, r6, #1987475062	; 0x76767676
 800328c:	2f01      	cmp	r7, #1
 800328e:	ea83 0306 	eor.w	r3, r3, r6
  while (number >= 10U)
 8003292:	f000 81e6 	beq.w	8003662 <HAL_RTC_SetDate+0x4ba>
 8003296:	f00e 337f 	and.w	r3, lr, #2139062143	; 0x7f7f7f7f
 800329a:	f08e 36b0 	eor.w	r6, lr, #2964369584	; 0xb0b0b0b0
    number -= 10U;
 800329e:	f08e 3ef6 	eor.w	lr, lr, #4143380214	; 0xf6f6f6f6
 80032a2:	f103 3830 	add.w	r8, r3, #808464432	; 0x30303030
 80032a6:	f006 3680 	and.w	r6, r6, #2155905152	; 0x80808080
 80032aa:	f00e 3e80 	and.w	lr, lr, #2155905152	; 0x80808080
 80032ae:	f103 3376 	add.w	r3, r3, #1987475062	; 0x76767676
 80032b2:	2f03      	cmp	r7, #3
 80032b4:	ea86 0608 	eor.w	r6, r6, r8
 80032b8:	ea8e 0303 	eor.w	r3, lr, r3
  while (number >= 10U)
 80032bc:	f040 81cb 	bne.w	8003656 <HAL_RTC_SetDate+0x4ae>
    number -= 10U;
 80032c0:	f086 33f6 	eor.w	r3, r6, #4143380214	; 0xf6f6f6f6
 80032c4:	f006 367f 	and.w	r6, r6, #2139062143	; 0x7f7f7f7f
 80032c8:	f106 3676 	add.w	r6, r6, #1987475062	; 0x76767676
 80032cc:	f003 3380 	and.w	r3, r3, #2155905152	; 0x80808080
 80032d0:	4073      	eors	r3, r6
    bcdhigh++;
 80032d2:	2618      	movs	r6, #24
 80032d4:	f005 0e38 	and.w	lr, r5, #56	; 0x38
 80032d8:	ebce 174e 	rsb	r7, lr, lr, lsl #5
 80032dc:	ebce 0787 	rsb	r7, lr, r7, lsl #2
 80032e0:	eb0c 0747 	add.w	r7, ip, r7, lsl #1
 80032e4:	4575      	cmp	r5, lr
 80032e6:	ea4f 6313 	mov.w	r3, r3, lsr #24
 80032ea:	fa5f fc87 	uxtb.w	ip, r7
 80032ee:	d035      	beq.n	800335c <HAL_RTC_SetDate+0x1b4>
 80032f0:	f1ac 030a 	sub.w	r3, ip, #10
    number -= 10U;
 80032f4:	b2db      	uxtb	r3, r3
  while (number >= 10U)
 80032f6:	2b09      	cmp	r3, #9
    bcdhigh++;
 80032f8:	f10e 0601 	add.w	r6, lr, #1
  while (number >= 10U)
 80032fc:	d92e      	bls.n	800335c <HAL_RTC_SetDate+0x1b4>
    number -= 10U;
 80032fe:	f1ac 0314 	sub.w	r3, ip, #20
 8003302:	b2db      	uxtb	r3, r3
  while (number >= 10U)
 8003304:	2b09      	cmp	r3, #9
    bcdhigh++;
 8003306:	f10e 0602 	add.w	r6, lr, #2
  while (number >= 10U)
 800330a:	d927      	bls.n	800335c <HAL_RTC_SetDate+0x1b4>
    number -= 10U;
 800330c:	f1ac 031e 	sub.w	r3, ip, #30
 8003310:	b2db      	uxtb	r3, r3
  while (number >= 10U)
 8003312:	2b09      	cmp	r3, #9
    bcdhigh++;
 8003314:	f10e 0603 	add.w	r6, lr, #3
  while (number >= 10U)
 8003318:	d920      	bls.n	800335c <HAL_RTC_SetDate+0x1b4>
    number -= 10U;
 800331a:	f1ac 0328 	sub.w	r3, ip, #40	; 0x28
 800331e:	b2db      	uxtb	r3, r3
  while (number >= 10U)
 8003320:	2b09      	cmp	r3, #9
    bcdhigh++;
 8003322:	f10e 0604 	add.w	r6, lr, #4
  while (number >= 10U)
 8003326:	d919      	bls.n	800335c <HAL_RTC_SetDate+0x1b4>
    number -= 10U;
 8003328:	f1ac 0332 	sub.w	r3, ip, #50	; 0x32
 800332c:	b2db      	uxtb	r3, r3
  while (number >= 10U)
 800332e:	2b09      	cmp	r3, #9
    bcdhigh++;
 8003330:	f10e 0605 	add.w	r6, lr, #5
  while (number >= 10U)
 8003334:	d912      	bls.n	800335c <HAL_RTC_SetDate+0x1b4>
    number -= 10U;
 8003336:	f1ac 033c 	sub.w	r3, ip, #60	; 0x3c
 800333a:	b2db      	uxtb	r3, r3
  while (number >= 10U)
 800333c:	2b09      	cmp	r3, #9
    bcdhigh++;
 800333e:	f10e 0606 	add.w	r6, lr, #6
  while (number >= 10U)
 8003342:	d90b      	bls.n	800335c <HAL_RTC_SetDate+0x1b4>
    number -= 10U;
 8003344:	f1ac 0346 	sub.w	r3, ip, #70	; 0x46
 8003348:	b2db      	uxtb	r3, r3
  while (number >= 10U)
 800334a:	2b09      	cmp	r3, #9
    bcdhigh++;
 800334c:	f10e 0607 	add.w	r6, lr, #7
  while (number >= 10U)
 8003350:	d904      	bls.n	800335c <HAL_RTC_SetDate+0x1b4>
    number -= 10U;
 8003352:	f1ac 0350 	sub.w	r3, ip, #80	; 0x50
    bcdhigh++;
 8003356:	f10e 0608 	add.w	r6, lr, #8
    number -= 10U;
 800335a:	b2db      	uxtb	r3, r3
  return ((uint8_t)(bcdhigh << 4U) | number);
 800335c:	ea43 1306 	orr.w	r3, r3, r6, lsl #4
 8003360:	fa5f fc83 	uxtb.w	ip, r3
  while (number >= 10U)
 8003364:	2809      	cmp	r0, #9
    datetmpreg = (((uint32_t)RTC_ByteToBcd2(sDate->Year)  << RTC_DR_YU_Pos) | \
 8003366:	ea4f 4c0c 	mov.w	ip, ip, lsl #16
  while (number >= 10U)
 800336a:	f240 8098 	bls.w	800349e <HAL_RTC_SetDate+0x2f6>
 800336e:	4d80      	ldr	r5, [pc, #512]	; (8003570 <HAL_RTC_SetDate+0x3c8>)
 8003370:	f1a0 030a 	sub.w	r3, r0, #10
 8003374:	b2de      	uxtb	r6, r3
 8003376:	fba5 7506 	umull	r7, r5, r5, r6
 800337a:	08ed      	lsrs	r5, r5, #3
 800337c:	2e4f      	cmp	r6, #79	; 0x4f
 800337e:	f105 0501 	add.w	r5, r5, #1
 8003382:	f240 817c 	bls.w	800367e <HAL_RTC_SetDate+0x4d6>
 8003386:	f1a0 0628 	sub.w	r6, r0, #40	; 0x28
 800338a:	2300      	movs	r3, #0
 800338c:	f366 0307 	bfi	r3, r6, #0, #8
 8003390:	f1a0 0632 	sub.w	r6, r0, #50	; 0x32
 8003394:	f366 230f 	bfi	r3, r6, #8, #8
 8003398:	f1a0 063c 	sub.w	r6, r0, #60	; 0x3c
 800339c:	f366 4317 	bfi	r3, r6, #16, #8
 80033a0:	f1a0 0646 	sub.w	r6, r0, #70	; 0x46
 80033a4:	f366 631f 	bfi	r3, r6, #24, #8
 80033a8:	f003 367f 	and.w	r6, r3, #2139062143	; 0x7f7f7f7f
 80033ac:	f083 3eb0 	eor.w	lr, r3, #2964369584	; 0xb0b0b0b0
 80033b0:	f106 3730 	add.w	r7, r6, #808464432	; 0x30303030
 80033b4:	f00e 3e80 	and.w	lr, lr, #2155905152	; 0x80808080
    number -= 10U;
 80033b8:	f083 33f6 	eor.w	r3, r3, #4143380214	; 0xf6f6f6f6
 80033bc:	ea8e 0e07 	eor.w	lr, lr, r7
 80033c0:	08ef      	lsrs	r7, r5, #3
 80033c2:	f003 3380 	and.w	r3, r3, #2155905152	; 0x80808080
 80033c6:	f106 3676 	add.w	r6, r6, #1987475062	; 0x76767676
 80033ca:	2f01      	cmp	r7, #1
 80033cc:	ea83 0306 	eor.w	r3, r3, r6
  while (number >= 10U)
 80033d0:	f000 814b 	beq.w	800366a <HAL_RTC_SetDate+0x4c2>
 80033d4:	f00e 337f 	and.w	r3, lr, #2139062143	; 0x7f7f7f7f
 80033d8:	f08e 36b0 	eor.w	r6, lr, #2964369584	; 0xb0b0b0b0
    number -= 10U;
 80033dc:	f08e 3ef6 	eor.w	lr, lr, #4143380214	; 0xf6f6f6f6
 80033e0:	f103 3830 	add.w	r8, r3, #808464432	; 0x30303030
 80033e4:	f006 3680 	and.w	r6, r6, #2155905152	; 0x80808080
 80033e8:	f00e 3e80 	and.w	lr, lr, #2155905152	; 0x80808080
 80033ec:	f103 3376 	add.w	r3, r3, #1987475062	; 0x76767676
 80033f0:	2f03      	cmp	r7, #3
 80033f2:	ea86 0608 	eor.w	r6, r6, r8
 80033f6:	ea8e 0303 	eor.w	r3, lr, r3
  while (number >= 10U)
 80033fa:	f040 812e 	bne.w	800365a <HAL_RTC_SetDate+0x4b2>
    number -= 10U;
 80033fe:	f006 337f 	and.w	r3, r6, #2139062143	; 0x7f7f7f7f
 8003402:	f086 36f6 	eor.w	r6, r6, #4143380214	; 0xf6f6f6f6
 8003406:	f006 3680 	and.w	r6, r6, #2155905152	; 0x80808080
 800340a:	f103 3376 	add.w	r3, r3, #1987475062	; 0x76767676
 800340e:	4073      	eors	r3, r6
    bcdhigh++;
 8003410:	2618      	movs	r6, #24
 8003412:	f005 0e38 	and.w	lr, r5, #56	; 0x38
 8003416:	ebce 174e 	rsb	r7, lr, lr, lsl #5
 800341a:	ebce 0787 	rsb	r7, lr, r7, lsl #2
 800341e:	eb00 0047 	add.w	r0, r0, r7, lsl #1
 8003422:	4575      	cmp	r5, lr
 8003424:	ea4f 6313 	mov.w	r3, r3, lsr #24
 8003428:	b2c0      	uxtb	r0, r0
 800342a:	d035      	beq.n	8003498 <HAL_RTC_SetDate+0x2f0>
 800342c:	f1a0 030a 	sub.w	r3, r0, #10
    number -= 10U;
 8003430:	b2db      	uxtb	r3, r3
  while (number >= 10U)
 8003432:	2b09      	cmp	r3, #9
    bcdhigh++;
 8003434:	f10e 0601 	add.w	r6, lr, #1
  while (number >= 10U)
 8003438:	d92e      	bls.n	8003498 <HAL_RTC_SetDate+0x2f0>
    number -= 10U;
 800343a:	f1a0 0314 	sub.w	r3, r0, #20
 800343e:	b2db      	uxtb	r3, r3
  while (number >= 10U)
 8003440:	2b09      	cmp	r3, #9
    bcdhigh++;
 8003442:	f10e 0602 	add.w	r6, lr, #2
  while (number >= 10U)
 8003446:	d927      	bls.n	8003498 <HAL_RTC_SetDate+0x2f0>
    number -= 10U;
 8003448:	f1a0 031e 	sub.w	r3, r0, #30
 800344c:	b2db      	uxtb	r3, r3
  while (number >= 10U)
 800344e:	2b09      	cmp	r3, #9
    bcdhigh++;
 8003450:	f10e 0603 	add.w	r6, lr, #3
  while (number >= 10U)
 8003454:	d920      	bls.n	8003498 <HAL_RTC_SetDate+0x2f0>
    number -= 10U;
 8003456:	f1a0 0328 	sub.w	r3, r0, #40	; 0x28
 800345a:	b2db      	uxtb	r3, r3
  while (number >= 10U)
 800345c:	2b09      	cmp	r3, #9
    bcdhigh++;
 800345e:	f10e 0604 	add.w	r6, lr, #4
  while (number >= 10U)
 8003462:	d919      	bls.n	8003498 <HAL_RTC_SetDate+0x2f0>
    number -= 10U;
 8003464:	f1a0 0332 	sub.w	r3, r0, #50	; 0x32
 8003468:	b2db      	uxtb	r3, r3
  while (number >= 10U)
 800346a:	2b09      	cmp	r3, #9
    bcdhigh++;
 800346c:	f10e 0605 	add.w	r6, lr, #5
  while (number >= 10U)
 8003470:	d912      	bls.n	8003498 <HAL_RTC_SetDate+0x2f0>
    number -= 10U;
 8003472:	f1a0 033c 	sub.w	r3, r0, #60	; 0x3c
 8003476:	b2db      	uxtb	r3, r3
  while (number >= 10U)
 8003478:	2b09      	cmp	r3, #9
    bcdhigh++;
 800347a:	f10e 0606 	add.w	r6, lr, #6
  while (number >= 10U)
 800347e:	d90b      	bls.n	8003498 <HAL_RTC_SetDate+0x2f0>
    number -= 10U;
 8003480:	f1a0 0346 	sub.w	r3, r0, #70	; 0x46
 8003484:	b2db      	uxtb	r3, r3
  while (number >= 10U)
 8003486:	2b09      	cmp	r3, #9
    bcdhigh++;
 8003488:	f10e 0607 	add.w	r6, lr, #7
  while (number >= 10U)
 800348c:	d904      	bls.n	8003498 <HAL_RTC_SetDate+0x2f0>
    number -= 10U;
 800348e:	f1a0 0350 	sub.w	r3, r0, #80	; 0x50
    bcdhigh++;
 8003492:	f10e 0608 	add.w	r6, lr, #8
    number -= 10U;
 8003496:	b2db      	uxtb	r3, r3
  return ((uint8_t)(bcdhigh << 4U) | number);
 8003498:	ea43 1306 	orr.w	r3, r3, r6, lsl #4
 800349c:	b2d8      	uxtb	r0, r3
                  ((uint32_t)RTC_ByteToBcd2(sDate->Date))                   | \
 800349e:	f891 e002 	ldrb.w	lr, [r1, #2]
  while (number >= 10U)
 80034a2:	f1be 0f09 	cmp.w	lr, #9
                  ((uint32_t)RTC_ByteToBcd2(sDate->Month) << RTC_DR_MU_Pos) | \
 80034a6:	ea4f 2000 	mov.w	r0, r0, lsl #8
  while (number >= 10U)
 80034aa:	f240 809b 	bls.w	80035e4 <HAL_RTC_SetDate+0x43c>
 80034ae:	4d30      	ldr	r5, [pc, #192]	; (8003570 <HAL_RTC_SetDate+0x3c8>)
 80034b0:	f1ae 030a 	sub.w	r3, lr, #10
 80034b4:	b2de      	uxtb	r6, r3
 80034b6:	fba5 7506 	umull	r7, r5, r5, r6
 80034ba:	08ed      	lsrs	r5, r5, #3
 80034bc:	2e4f      	cmp	r6, #79	; 0x4f
 80034be:	f105 0501 	add.w	r5, r5, #1
 80034c2:	d957      	bls.n	8003574 <HAL_RTC_SetDate+0x3cc>
 80034c4:	f1ae 0228 	sub.w	r2, lr, #40	; 0x28
 80034c8:	2300      	movs	r3, #0
 80034ca:	f362 0307 	bfi	r3, r2, #0, #8
 80034ce:	f1ae 0232 	sub.w	r2, lr, #50	; 0x32
 80034d2:	f362 230f 	bfi	r3, r2, #8, #8
 80034d6:	f1ae 023c 	sub.w	r2, lr, #60	; 0x3c
 80034da:	f362 4317 	bfi	r3, r2, #16, #8
 80034de:	f1ae 0246 	sub.w	r2, lr, #70	; 0x46
 80034e2:	f362 631f 	bfi	r3, r2, #24, #8
 80034e6:	f003 367f 	and.w	r6, r3, #2139062143	; 0x7f7f7f7f
 80034ea:	f083 32b0 	eor.w	r2, r3, #2964369584	; 0xb0b0b0b0
 80034ee:	f106 3730 	add.w	r7, r6, #808464432	; 0x30303030
 80034f2:	f002 3280 	and.w	r2, r2, #2155905152	; 0x80808080
    number -= 10U;
 80034f6:	f083 33f6 	eor.w	r3, r3, #4143380214	; 0xf6f6f6f6
 80034fa:	407a      	eors	r2, r7
 80034fc:	08ef      	lsrs	r7, r5, #3
 80034fe:	f003 3380 	and.w	r3, r3, #2155905152	; 0x80808080
 8003502:	f106 3676 	add.w	r6, r6, #1987475062	; 0x76767676
 8003506:	2f01      	cmp	r7, #1
 8003508:	ea83 0306 	eor.w	r3, r3, r6
  while (number >= 10U)
 800350c:	f000 80ab 	beq.w	8003666 <HAL_RTC_SetDate+0x4be>
 8003510:	f002 337f 	and.w	r3, r2, #2139062143	; 0x7f7f7f7f
 8003514:	f082 36b0 	eor.w	r6, r2, #2964369584	; 0xb0b0b0b0
    number -= 10U;
 8003518:	f082 32f6 	eor.w	r2, r2, #4143380214	; 0xf6f6f6f6
 800351c:	f103 3830 	add.w	r8, r3, #808464432	; 0x30303030
 8003520:	f006 3680 	and.w	r6, r6, #2155905152	; 0x80808080
 8003524:	f002 3280 	and.w	r2, r2, #2155905152	; 0x80808080
 8003528:	f103 3376 	add.w	r3, r3, #1987475062	; 0x76767676
 800352c:	2f03      	cmp	r7, #3
 800352e:	ea86 0608 	eor.w	r6, r6, r8
 8003532:	ea83 0302 	eor.w	r3, r3, r2
  while (number >= 10U)
 8003536:	f040 808c 	bne.w	8003652 <HAL_RTC_SetDate+0x4aa>
    number -= 10U;
 800353a:	f086 33f6 	eor.w	r3, r6, #4143380214	; 0xf6f6f6f6
 800353e:	f006 367f 	and.w	r6, r6, #2139062143	; 0x7f7f7f7f
 8003542:	f106 3676 	add.w	r6, r6, #1987475062	; 0x76767676
 8003546:	f003 3380 	and.w	r3, r3, #2155905152	; 0x80808080
 800354a:	4073      	eors	r3, r6
    bcdhigh++;
 800354c:	2618      	movs	r6, #24
 800354e:	f005 0238 	and.w	r2, r5, #56	; 0x38
 8003552:	ebc2 1742 	rsb	r7, r2, r2, lsl #5
 8003556:	ebc2 0787 	rsb	r7, r2, r7, lsl #2
 800355a:	eb0e 0747 	add.w	r7, lr, r7, lsl #1
 800355e:	42aa      	cmp	r2, r5
 8003560:	ea4f 6313 	mov.w	r3, r3, lsr #24
 8003564:	fa5f fe87 	uxtb.w	lr, r7
 8003568:	d038      	beq.n	80035dc <HAL_RTC_SetDate+0x434>
 800356a:	f1ae 030a 	sub.w	r3, lr, #10
 800356e:	e001      	b.n	8003574 <HAL_RTC_SetDate+0x3cc>
 8003570:	cccccccd 	.word	0xcccccccd
    number -= 10U;
 8003574:	b2db      	uxtb	r3, r3
  while (number >= 10U)
 8003576:	2b09      	cmp	r3, #9
    bcdhigh++;
 8003578:	f102 0601 	add.w	r6, r2, #1
  while (number >= 10U)
 800357c:	d92e      	bls.n	80035dc <HAL_RTC_SetDate+0x434>
    number -= 10U;
 800357e:	f1ae 0314 	sub.w	r3, lr, #20
 8003582:	b2db      	uxtb	r3, r3
  while (number >= 10U)
 8003584:	2b09      	cmp	r3, #9
    bcdhigh++;
 8003586:	f102 0602 	add.w	r6, r2, #2
  while (number >= 10U)
 800358a:	d927      	bls.n	80035dc <HAL_RTC_SetDate+0x434>
    number -= 10U;
 800358c:	f1ae 031e 	sub.w	r3, lr, #30
 8003590:	b2db      	uxtb	r3, r3
  while (number >= 10U)
 8003592:	2b09      	cmp	r3, #9
    bcdhigh++;
 8003594:	f102 0603 	add.w	r6, r2, #3
  while (number >= 10U)
 8003598:	d920      	bls.n	80035dc <HAL_RTC_SetDate+0x434>
    number -= 10U;
 800359a:	f1ae 0328 	sub.w	r3, lr, #40	; 0x28
 800359e:	b2db      	uxtb	r3, r3
  while (number >= 10U)
 80035a0:	2b09      	cmp	r3, #9
    bcdhigh++;
 80035a2:	f102 0604 	add.w	r6, r2, #4
  while (number >= 10U)
 80035a6:	d919      	bls.n	80035dc <HAL_RTC_SetDate+0x434>
    number -= 10U;
 80035a8:	f1ae 0332 	sub.w	r3, lr, #50	; 0x32
 80035ac:	b2db      	uxtb	r3, r3
  while (number >= 10U)
 80035ae:	2b09      	cmp	r3, #9
    bcdhigh++;
 80035b0:	f102 0605 	add.w	r6, r2, #5
  while (number >= 10U)
 80035b4:	d912      	bls.n	80035dc <HAL_RTC_SetDate+0x434>
    number -= 10U;
 80035b6:	f1ae 033c 	sub.w	r3, lr, #60	; 0x3c
 80035ba:	b2db      	uxtb	r3, r3
  while (number >= 10U)
 80035bc:	2b09      	cmp	r3, #9
    bcdhigh++;
 80035be:	f102 0606 	add.w	r6, r2, #6
  while (number >= 10U)
 80035c2:	d90b      	bls.n	80035dc <HAL_RTC_SetDate+0x434>
    number -= 10U;
 80035c4:	f1ae 0346 	sub.w	r3, lr, #70	; 0x46
 80035c8:	b2db      	uxtb	r3, r3
  while (number >= 10U)
 80035ca:	2b09      	cmp	r3, #9
    bcdhigh++;
 80035cc:	f102 0607 	add.w	r6, r2, #7
  while (number >= 10U)
 80035d0:	d904      	bls.n	80035dc <HAL_RTC_SetDate+0x434>
    number -= 10U;
 80035d2:	f1ae 0350 	sub.w	r3, lr, #80	; 0x50
    bcdhigh++;
 80035d6:	f102 0608 	add.w	r6, r2, #8
    number -= 10U;
 80035da:	b2db      	uxtb	r3, r3
  return ((uint8_t)(bcdhigh << 4U) | number);
 80035dc:	ea43 1306 	orr.w	r3, r3, r6, lsl #4
 80035e0:	fa5f fe83 	uxtb.w	lr, r3
                  ((uint32_t)sDate->WeekDay               << RTC_DR_WDU_Pos));
 80035e4:	780d      	ldrb	r5, [r1, #0]
    datetmpreg = (((uint32_t)RTC_ByteToBcd2(sDate->Year)  << RTC_DR_YU_Pos) | \
 80035e6:	ea4c 3545 	orr.w	r5, ip, r5, lsl #13
 80035ea:	4305      	orrs	r5, r0
 80035ec:	ea45 050e 	orr.w	r5, r5, lr
 80035f0:	e5f0      	b.n	80031d4 <HAL_RTC_SetDate+0x2c>
    SET_BIT(hrtc->Instance->ISR, RTC_ISR_INIT);
 80035f2:	68da      	ldr	r2, [r3, #12]
 80035f4:	f042 0280 	orr.w	r2, r2, #128	; 0x80
 80035f8:	60da      	str	r2, [r3, #12]
    tickstart = HAL_GetTick();
 80035fa:	f7fe fdc5 	bl	8002188 <HAL_GetTick>
 80035fe:	4606      	mov	r6, r0
    while ((READ_BIT(hrtc->Instance->ISR, RTC_ISR_INITF) == 0U) && (status != HAL_ERROR))
 8003600:	6823      	ldr	r3, [r4, #0]
 8003602:	68da      	ldr	r2, [r3, #12]
 8003604:	0650      	lsls	r0, r2, #25
 8003606:	f53f adee 	bmi.w	80031e6 <HAL_RTC_SetDate+0x3e>
      if ((HAL_GetTick() - tickstart) > RTC_TIMEOUT_VALUE)
 800360a:	f7fe fdbd 	bl	8002188 <HAL_GetTick>
 800360e:	1b80      	subs	r0, r0, r6
 8003610:	f5b0 7f7a 	cmp.w	r0, #1000	; 0x3e8
 8003614:	d9f4      	bls.n	8003600 <HAL_RTC_SetDate+0x458>
        hrtc->State = HAL_RTC_STATE_ERROR;
 8003616:	2204      	movs	r2, #4
    while ((READ_BIT(hrtc->Instance->ISR, RTC_ISR_INITF) == 0U) && (status != HAL_ERROR))
 8003618:	6823      	ldr	r3, [r4, #0]
        hrtc->State = HAL_RTC_STATE_ERROR;
 800361a:	7762      	strb	r2, [r4, #29]
    while ((READ_BIT(hrtc->Instance->ISR, RTC_ISR_INITF) == 0U) && (status != HAL_ERROR))
 800361c:	68da      	ldr	r2, [r3, #12]
 800361e:	2001      	movs	r0, #1
 8003620:	e5f1      	b.n	8003206 <HAL_RTC_SetDate+0x5e>
    datetmpreg = (((uint32_t)RTC_ByteToBcd2(sDate->Year)  << RTC_DR_YU_Pos) | \
 8003622:	f891 c003 	ldrb.w	ip, [r1, #3]
  while (number >= 10U)
 8003626:	f1bc 0f09 	cmp.w	ip, #9
 800362a:	f63f ae01 	bhi.w	8003230 <HAL_RTC_SetDate+0x88>
 800362e:	e699      	b.n	8003364 <HAL_RTC_SetDate+0x1bc>
  hrtc->Instance->ISR = ((uint32_t)(RTC_RSF_MASK & RTC_ISR_RESERVED_MASK));
 8003630:	4a16      	ldr	r2, [pc, #88]	; (800368c <HAL_RTC_SetDate+0x4e4>)
 8003632:	60da      	str	r2, [r3, #12]
  tickstart = HAL_GetTick();
 8003634:	f7fe fda8 	bl	8002188 <HAL_GetTick>
 8003638:	4605      	mov	r5, r0
  while ((hrtc->Instance->ISR & RTC_ISR_RSF) == 0U)
 800363a:	e005      	b.n	8003648 <HAL_RTC_SetDate+0x4a0>
    if ((HAL_GetTick() - tickstart) > RTC_TIMEOUT_VALUE)
 800363c:	f7fe fda4 	bl	8002188 <HAL_GetTick>
 8003640:	1b40      	subs	r0, r0, r5
 8003642:	f5b0 7f7a 	cmp.w	r0, #1000	; 0x3e8
 8003646:	d815      	bhi.n	8003674 <HAL_RTC_SetDate+0x4cc>
  while ((hrtc->Instance->ISR & RTC_ISR_RSF) == 0U)
 8003648:	6823      	ldr	r3, [r4, #0]
 800364a:	68da      	ldr	r2, [r3, #12]
 800364c:	0692      	lsls	r2, r2, #26
 800364e:	d5f5      	bpl.n	800363c <HAL_RTC_SetDate+0x494>
 8003650:	e5d6      	b.n	8003200 <HAL_RTC_SetDate+0x58>
    bcdhigh++;
 8003652:	2610      	movs	r6, #16
 8003654:	e77b      	b.n	800354e <HAL_RTC_SetDate+0x3a6>
 8003656:	2610      	movs	r6, #16
 8003658:	e63c      	b.n	80032d4 <HAL_RTC_SetDate+0x12c>
 800365a:	2610      	movs	r6, #16
 800365c:	e6d9      	b.n	8003412 <HAL_RTC_SetDate+0x26a>
  __HAL_LOCK(hrtc);
 800365e:	2002      	movs	r0, #2
}
 8003660:	4770      	bx	lr
    bcdhigh++;
 8003662:	2608      	movs	r6, #8
 8003664:	e636      	b.n	80032d4 <HAL_RTC_SetDate+0x12c>
 8003666:	2608      	movs	r6, #8
 8003668:	e771      	b.n	800354e <HAL_RTC_SetDate+0x3a6>
 800366a:	2608      	movs	r6, #8
 800366c:	e6d1      	b.n	8003412 <HAL_RTC_SetDate+0x26a>
    datetmpreg = (((uint32_t)RTC_ByteToBcd2(sDate->Year)  << RTC_DR_YU_Pos) | \
 800366e:	ea4f 4c0c 	mov.w	ip, ip, lsl #16
  while (number >= 10U)
 8003672:	e67c      	b.n	800336e <HAL_RTC_SetDate+0x1c6>
      hrtc->State = HAL_RTC_STATE_ERROR;
 8003674:	2204      	movs	r2, #4
  __HAL_RTC_WRITEPROTECTION_ENABLE(hrtc);
 8003676:	6823      	ldr	r3, [r4, #0]
      hrtc->State = HAL_RTC_STATE_ERROR;
 8003678:	7762      	strb	r2, [r4, #29]
      status = HAL_ERROR;
 800367a:	2001      	movs	r0, #1
 800367c:	e5c3      	b.n	8003206 <HAL_RTC_SetDate+0x5e>
    bcdhigh++;
 800367e:	f04f 0e00 	mov.w	lr, #0
 8003682:	e6d5      	b.n	8003430 <HAL_RTC_SetDate+0x288>
  uint32_t bcdhigh = 0U;
 8003684:	f04f 0e00 	mov.w	lr, #0
 8003688:	e634      	b.n	80032f4 <HAL_RTC_SetDate+0x14c>
 800368a:	bf00      	nop
 800368c:	00017f5f 	.word	0x00017f5f

08003690 <HAL_RTCEx_BKUPRead>:
  uint32_t tmp = 0U;

  /* Check the parameters */
  assert_param(IS_RTC_BKP(BackupRegister));

  tmp = (uint32_t) &(hrtc->Instance->BKP0R);
 8003690:	6803      	ldr	r3, [r0, #0]
 8003692:	3350      	adds	r3, #80	; 0x50
  tmp += (BackupRegister * 4U);

  /* Read the specified register */
  return (*(__IO uint32_t *)tmp);
 8003694:	f853 0021 	ldr.w	r0, [r3, r1, lsl #2]
}
 8003698:	4770      	bx	lr
 800369a:	bf00      	nop

0800369c <HAL_RTCEx_SetCalibrationOutPut>:
{
  /* Check the parameters */
  assert_param(IS_RTC_CALIB_OUTPUT(CalibOutput));

  /* Process Locked */
  __HAL_LOCK(hrtc);
 800369c:	7f03      	ldrb	r3, [r0, #28]
 800369e:	2b01      	cmp	r3, #1
 80036a0:	d01c      	beq.n	80036dc <HAL_RTCEx_SetCalibrationOutPut+0x40>

  hrtc->State = HAL_RTC_STATE_BUSY;

  /* Disable the write protection for RTC registers */
  __HAL_RTC_WRITEPROTECTION_DISABLE(hrtc);
 80036a2:	6803      	ldr	r3, [r0, #0]
{
 80036a4:	b410      	push	{r4}
  __HAL_RTC_WRITEPROTECTION_DISABLE(hrtc);
 80036a6:	22ca      	movs	r2, #202	; 0xca
  hrtc->State = HAL_RTC_STATE_BUSY;
 80036a8:	2402      	movs	r4, #2
 80036aa:	7744      	strb	r4, [r0, #29]
  __HAL_RTC_WRITEPROTECTION_DISABLE(hrtc);
 80036ac:	625a      	str	r2, [r3, #36]	; 0x24
 80036ae:	2253      	movs	r2, #83	; 0x53
 80036b0:	625a      	str	r2, [r3, #36]	; 0x24

  /* Clear flags before config */
  hrtc->Instance->CR &= (uint32_t)~RTC_CR_COSEL;
 80036b2:	689c      	ldr	r4, [r3, #8]
 80036b4:	f424 2400 	bic.w	r4, r4, #524288	; 0x80000
 80036b8:	609c      	str	r4, [r3, #8]

  /* Configure the RTC_CR register */
  hrtc->Instance->CR |= (uint32_t)CalibOutput;
 80036ba:	689c      	ldr	r4, [r3, #8]
 80036bc:	4321      	orrs	r1, r4
 80036be:	6099      	str	r1, [r3, #8]

  __HAL_RTC_CALIBRATION_OUTPUT_ENABLE(hrtc);
 80036c0:	6899      	ldr	r1, [r3, #8]

  /* Enable the write protection for RTC registers */
  __HAL_RTC_WRITEPROTECTION_ENABLE(hrtc);
 80036c2:	24ff      	movs	r4, #255	; 0xff
  __HAL_RTC_CALIBRATION_OUTPUT_ENABLE(hrtc);
 80036c4:	f441 0100 	orr.w	r1, r1, #8388608	; 0x800000
 80036c8:	6099      	str	r1, [r3, #8]

  /* Change RTC state */
  hrtc->State = HAL_RTC_STATE_READY;

  /* Process Unlocked */
  __HAL_UNLOCK(hrtc);
 80036ca:	2200      	movs	r2, #0
  __HAL_RTC_WRITEPROTECTION_ENABLE(hrtc);
 80036cc:	625c      	str	r4, [r3, #36]	; 0x24
  hrtc->State = HAL_RTC_STATE_READY;
 80036ce:	2301      	movs	r3, #1
 80036d0:	7743      	strb	r3, [r0, #29]
  __HAL_UNLOCK(hrtc);
 80036d2:	7702      	strb	r2, [r0, #28]

  return HAL_OK;
}
 80036d4:	f85d 4b04 	ldr.w	r4, [sp], #4
  return HAL_OK;
 80036d8:	4610      	mov	r0, r2
}
 80036da:	4770      	bx	lr
  __HAL_LOCK(hrtc);
 80036dc:	2002      	movs	r0, #2
}
 80036de:	4770      	bx	lr

080036e0 <HAL_SRAM_Init>:
  */
HAL_StatusTypeDef HAL_SRAM_Init(SRAM_HandleTypeDef *hsram, FMC_NORSRAM_TimingTypeDef *Timing,
                                FMC_NORSRAM_TimingTypeDef *ExtTiming)
{
  /* Check the SRAM handle parameter */
  if (hsram == NULL)
 80036e0:	b348      	cbz	r0, 8003736 <HAL_SRAM_Init+0x56>
{
 80036e2:	b570      	push	{r4, r5, r6, lr}
  {
    return HAL_ERROR;
  }

  if (hsram->State == HAL_SRAM_STATE_RESET)
 80036e4:	f890 3049 	ldrb.w	r3, [r0, #73]	; 0x49
 80036e8:	4615      	mov	r5, r2
 80036ea:	460e      	mov	r6, r1
 80036ec:	4604      	mov	r4, r0
 80036ee:	f003 02ff 	and.w	r2, r3, #255	; 0xff
 80036f2:	b1db      	cbz	r3, 800372c <HAL_SRAM_Init+0x4c>
    HAL_SRAM_MspInit(hsram);
#endif /* USE_HAL_SRAM_REGISTER_CALLBACKS */
  }

  /* Initialize SRAM control Interface */
  (void)FMC_NORSRAM_Init(hsram->Instance, &(hsram->Init));
 80036f4:	4621      	mov	r1, r4
 80036f6:	f851 0b08 	ldr.w	r0, [r1], #8
 80036fa:	f000 f81f 	bl	800373c <FSMC_NORSRAM_Init>

  /* Initialize SRAM timing Interface */
  (void)FMC_NORSRAM_Timing_Init(hsram->Instance, Timing, hsram->Init.NSBank);
 80036fe:	68a2      	ldr	r2, [r4, #8]
 8003700:	6820      	ldr	r0, [r4, #0]
 8003702:	4631      	mov	r1, r6
 8003704:	f000 f850 	bl	80037a8 <FSMC_NORSRAM_Timing_Init>

  /* Initialize SRAM extended mode timing Interface */
  (void)FMC_NORSRAM_Extended_Timing_Init(hsram->Extended, ExtTiming, hsram->Init.NSBank,
 8003708:	e9d4 0201 	ldrd	r0, r2, [r4, #4]
 800370c:	6b23      	ldr	r3, [r4, #48]	; 0x30
 800370e:	4629      	mov	r1, r5
 8003710:	f000 f868 	bl	80037e4 <FSMC_NORSRAM_Extended_Timing_Init>
                                         hsram->Init.ExtendedMode);

  /* Enable the NORSRAM device */
  __FMC_NORSRAM_ENABLE(hsram->Instance, hsram->Init.NSBank);
 8003714:	6822      	ldr	r2, [r4, #0]
 8003716:	68a1      	ldr	r1, [r4, #8]
 8003718:	f852 3021 	ldr.w	r3, [r2, r1, lsl #2]

  /* Initialize the SRAM controller state */
  hsram->State = HAL_SRAM_STATE_READY;
 800371c:	2501      	movs	r5, #1
  __FMC_NORSRAM_ENABLE(hsram->Instance, hsram->Init.NSBank);
 800371e:	432b      	orrs	r3, r5
 8003720:	f842 3021 	str.w	r3, [r2, r1, lsl #2]
  hsram->State = HAL_SRAM_STATE_READY;
 8003724:	f884 5049 	strb.w	r5, [r4, #73]	; 0x49

  return HAL_OK;
 8003728:	2000      	movs	r0, #0
}
 800372a:	bd70      	pop	{r4, r5, r6, pc}
    hsram->Lock = HAL_UNLOCKED;
 800372c:	f880 2048 	strb.w	r2, [r0, #72]	; 0x48
    HAL_SRAM_MspInit(hsram);
 8003730:	f7fe fc64 	bl	8001ffc <HAL_SRAM_MspInit>
 8003734:	e7de      	b.n	80036f4 <HAL_SRAM_Init+0x14>
    return HAL_ERROR;
 8003736:	2001      	movs	r0, #1
}
 8003738:	4770      	bx	lr
 800373a:	bf00      	nop

0800373c <FSMC_NORSRAM_Init>:
  * @param  Init Pointer to NORSRAM Initialization structure
  * @retval HAL status
  */
HAL_StatusTypeDef  FSMC_NORSRAM_Init(FSMC_NORSRAM_TypeDef *Device,
                                     const FSMC_NORSRAM_InitTypeDef *Init)
{
 800373c:	b430      	push	{r4, r5}
#if defined(FSMC_BCR1_WFDIS)
  mask |= FSMC_BCR1_WFDIS;
#endif /* FSMC_BCR1_WFDIS */
  mask |= FSMC_BCR1_CPSIZE;

  MODIFY_REG(Device->BTCR[Init->NSBank], mask, btcr_reg);
 800373e:	e9d1 3401 	ldrd	r3, r4, [r1, #4]
 8003742:	68ca      	ldr	r2, [r1, #12]
 8003744:	690d      	ldr	r5, [r1, #16]
 8003746:	4323      	orrs	r3, r4
 8003748:	4313      	orrs	r3, r2
  if (Init->MemoryType == FSMC_MEMORY_TYPE_NOR)
 800374a:	f1a4 0c08 	sub.w	ip, r4, #8
  MODIFY_REG(Device->BTCR[Init->NSBank], mask, btcr_reg);
 800374e:	694c      	ldr	r4, [r1, #20]
 8003750:	680a      	ldr	r2, [r1, #0]
 8003752:	432b      	orrs	r3, r5
 8003754:	4323      	orrs	r3, r4
 8003756:	69cc      	ldr	r4, [r1, #28]
 8003758:	4323      	orrs	r3, r4
 800375a:	6a0c      	ldr	r4, [r1, #32]
 800375c:	4323      	orrs	r3, r4
  __FSMC_NORSRAM_DISABLE(Device, Init->NSBank);
 800375e:	f850 4022 	ldr.w	r4, [r0, r2, lsl #2]
 8003762:	f024 0401 	bic.w	r4, r4, #1
 8003766:	f840 4022 	str.w	r4, [r0, r2, lsl #2]
  MODIFY_REG(Device->BTCR[Init->NSBank], mask, btcr_reg);
 800376a:	6a4c      	ldr	r4, [r1, #36]	; 0x24
 800376c:	4323      	orrs	r3, r4
 800376e:	6a8c      	ldr	r4, [r1, #40]	; 0x28
 8003770:	4323      	orrs	r3, r4
 8003772:	6acc      	ldr	r4, [r1, #44]	; 0x2c
 8003774:	4323      	orrs	r3, r4
 8003776:	6b0c      	ldr	r4, [r1, #48]	; 0x30
 8003778:	4323      	orrs	r3, r4
 800377a:	698c      	ldr	r4, [r1, #24]
 800377c:	6bc9      	ldr	r1, [r1, #60]	; 0x3c
 800377e:	4323      	orrs	r3, r4
 8003780:	430b      	orrs	r3, r1
 8003782:	f850 4022 	ldr.w	r4, [r0, r2, lsl #2]
 8003786:	4907      	ldr	r1, [pc, #28]	; (80037a4 <FSMC_NORSRAM_Init+0x68>)
  if (Init->MemoryType == FSMC_MEMORY_TYPE_NOR)
 8003788:	fabc fc8c 	clz	ip, ip
  MODIFY_REG(Device->BTCR[Init->NSBank], mask, btcr_reg);
 800378c:	4021      	ands	r1, r4
  if (Init->MemoryType == FSMC_MEMORY_TYPE_NOR)
 800378e:	ea4f 1c5c 	mov.w	ip, ip, lsr #5
  MODIFY_REG(Device->BTCR[Init->NSBank], mask, btcr_reg);
 8003792:	430b      	orrs	r3, r1
 8003794:	ea43 138c 	orr.w	r3, r3, ip, lsl #6
 8003798:	f840 3022 	str.w	r3, [r0, r2, lsl #2]
    SET_BIT(Device->BTCR[FSMC_NORSRAM_BANK1], (uint32_t)(Init->WriteFifo));
  }
#endif /* FSMC_BCR1_WFDIS */

  return HAL_OK;
}
 800379c:	bc30      	pop	{r4, r5}
 800379e:	2000      	movs	r0, #0
 80037a0:	4770      	bx	lr
 80037a2:	bf00      	nop
 80037a4:	fff00080 	.word	0xfff00080

080037a8 <FSMC_NORSRAM_Timing_Init>:
  * @param  Bank NORSRAM bank number
  * @retval HAL status
  */
HAL_StatusTypeDef FSMC_NORSRAM_Timing_Init(FSMC_NORSRAM_TypeDef *Device,
                                           const FSMC_NORSRAM_TimingTypeDef *Timing, uint32_t Bank)
{
 80037a8:	b410      	push	{r4}
    (Timing->AddressSetupTime << FSMC_BTR1_ADDSET_Pos) |
    (Timing->AddressHoldTime << FSMC_BTR1_ADDHLD_Pos) |
    (Timing->DataSetupTime << FSMC_BTR1_DATAST_Pos) |
    (Timing->BusTurnAroundDuration << FSMC_BTR1_BUSTURN_Pos) |
    ((Timing->CLKDivision - 1U) << FSMC_BTR1_CLKDIV_Pos) |
    ((Timing->DataLatency - 2U) << FSMC_BTR1_DATLAT_Pos) |
 80037aa:	680b      	ldr	r3, [r1, #0]
 80037ac:	698c      	ldr	r4, [r1, #24]
 80037ae:	4323      	orrs	r3, r4
    (Timing->AddressHoldTime << FSMC_BTR1_ADDHLD_Pos) |
 80037b0:	684c      	ldr	r4, [r1, #4]
    ((Timing->DataLatency - 2U) << FSMC_BTR1_DATLAT_Pos) |
 80037b2:	ea43 1304 	orr.w	r3, r3, r4, lsl #4
    (Timing->DataSetupTime << FSMC_BTR1_DATAST_Pos) |
 80037b6:	688c      	ldr	r4, [r1, #8]
    ((Timing->DataLatency - 2U) << FSMC_BTR1_DATLAT_Pos) |
 80037b8:	ea43 2304 	orr.w	r3, r3, r4, lsl #8
    (Timing->BusTurnAroundDuration << FSMC_BTR1_BUSTURN_Pos) |
 80037bc:	68cc      	ldr	r4, [r1, #12]
    ((Timing->DataLatency - 2U) << FSMC_BTR1_DATLAT_Pos) |
 80037be:	ea43 4304 	orr.w	r3, r3, r4, lsl #16
 80037c2:	e9d1 4104 	ldrd	r4, r1, [r1, #16]
    ((Timing->CLKDivision - 1U) << FSMC_BTR1_CLKDIV_Pos) |
 80037c6:	f104 3cff 	add.w	ip, r4, #4294967295
  Device->BTCR[Bank + 1U] =
 80037ca:	3201      	adds	r2, #1
    ((Timing->DataLatency - 2U) << FSMC_BTR1_DATLAT_Pos) |
 80037cc:	ea43 530c 	orr.w	r3, r3, ip, lsl #20
 80037d0:	3902      	subs	r1, #2
 80037d2:	ea43 6301 	orr.w	r3, r3, r1, lsl #24
  Device->BTCR[Bank + 1U] =
 80037d6:	f840 3022 	str.w	r3, [r0, r2, lsl #2]
    MODIFY_REG(Device->BTCR[FSMC_NORSRAM_BANK1 + 1U], FSMC_BTR1_CLKDIV, tmpr);
  }

#endif /* FSMC_BCR1_CCLKEN */
  return HAL_OK;
}
 80037da:	f85d 4b04 	ldr.w	r4, [sp], #4
 80037de:	2000      	movs	r0, #0
 80037e0:	4770      	bx	lr
 80037e2:	bf00      	nop

080037e4 <FSMC_NORSRAM_Extended_Timing_Init>:
{
  /* Check the parameters */
  assert_param(IS_FSMC_EXTENDED_MODE(ExtendedMode));

  /* Set NORSRAM device timing register for write configuration, if extended mode is used */
  if (ExtendedMode == FSMC_EXTENDED_MODE_ENABLE)
 80037e4:	f5b3 4f80 	cmp.w	r3, #16384	; 0x4000
 80037e8:	d005      	beq.n	80037f6 <FSMC_NORSRAM_Extended_Timing_Init+0x12>
                                                     Timing->AccessMode                                          |
                                                     ((Timing->BusTurnAroundDuration)  << FSMC_BWTR1_BUSTURN_Pos)));
  }
  else
  {
    Device->BWTR[Bank] = 0x0FFFFFFFU;
 80037ea:	f06f 4370 	mvn.w	r3, #4026531840	; 0xf0000000
 80037ee:	f840 3022 	str.w	r3, [r0, r2, lsl #2]
  }

  return HAL_OK;
}
 80037f2:	2000      	movs	r0, #0
 80037f4:	4770      	bx	lr
{
 80037f6:	b430      	push	{r4, r5}
    MODIFY_REG(Device->BWTR[Bank], BWTR_CLEAR_MASK, (Timing->AddressSetupTime                                    |
 80037f8:	680b      	ldr	r3, [r1, #0]
 80037fa:	698d      	ldr	r5, [r1, #24]
 80037fc:	f850 4022 	ldr.w	r4, [r0, r2, lsl #2]
 8003800:	432b      	orrs	r3, r5
 8003802:	684d      	ldr	r5, [r1, #4]
 8003804:	ea43 1305 	orr.w	r3, r3, r5, lsl #4
 8003808:	688d      	ldr	r5, [r1, #8]
 800380a:	68c9      	ldr	r1, [r1, #12]
 800380c:	ea43 2305 	orr.w	r3, r3, r5, lsl #8
 8003810:	ea43 4301 	orr.w	r3, r3, r1, lsl #16
 8003814:	4903      	ldr	r1, [pc, #12]	; (8003824 <FSMC_NORSRAM_Extended_Timing_Init+0x40>)
 8003816:	4021      	ands	r1, r4
 8003818:	430b      	orrs	r3, r1
 800381a:	f840 3022 	str.w	r3, [r0, r2, lsl #2]
}
 800381e:	bc30      	pop	{r4, r5}
 8003820:	2000      	movs	r0, #0
 8003822:	4770      	bx	lr
 8003824:	cff00000 	.word	0xcff00000

08003828 <__libc_init_array>:
 8003828:	b570      	push	{r4, r5, r6, lr}
 800382a:	4d0d      	ldr	r5, [pc, #52]	; (8003860 <__libc_init_array+0x38>)
 800382c:	4c0d      	ldr	r4, [pc, #52]	; (8003864 <__libc_init_array+0x3c>)
 800382e:	1b64      	subs	r4, r4, r5
 8003830:	10a4      	asrs	r4, r4, #2
 8003832:	2600      	movs	r6, #0
 8003834:	42a6      	cmp	r6, r4
 8003836:	d109      	bne.n	800384c <__libc_init_array+0x24>
 8003838:	4d0b      	ldr	r5, [pc, #44]	; (8003868 <__libc_init_array+0x40>)
 800383a:	4c0c      	ldr	r4, [pc, #48]	; (800386c <__libc_init_array+0x44>)
 800383c:	f000 f818 	bl	8003870 <_init>
 8003840:	1b64      	subs	r4, r4, r5
 8003842:	10a4      	asrs	r4, r4, #2
 8003844:	2600      	movs	r6, #0
 8003846:	42a6      	cmp	r6, r4
 8003848:	d105      	bne.n	8003856 <__libc_init_array+0x2e>
 800384a:	bd70      	pop	{r4, r5, r6, pc}
 800384c:	f855 3b04 	ldr.w	r3, [r5], #4
 8003850:	4798      	blx	r3
 8003852:	3601      	adds	r6, #1
 8003854:	e7ee      	b.n	8003834 <__libc_init_array+0xc>
 8003856:	f855 3b04 	ldr.w	r3, [r5], #4
 800385a:	4798      	blx	r3
 800385c:	3601      	adds	r6, #1
 800385e:	e7f2      	b.n	8003846 <__libc_init_array+0x1e>
 8003860:	080038a0 	.word	0x080038a0
 8003864:	080038a0 	.word	0x080038a0
 8003868:	080038a0 	.word	0x080038a0
 800386c:	080038a4 	.word	0x080038a4

08003870 <_init>:
 8003870:	b5f8      	push	{r3, r4, r5, r6, r7, lr}
 8003872:	bf00      	nop
 8003874:	bcf8      	pop	{r3, r4, r5, r6, r7}
 8003876:	bc08      	pop	{r3}
 8003878:	469e      	mov	lr, r3
 800387a:	4770      	bx	lr

0800387c <_fini>:
 800387c:	b5f8      	push	{r3, r4, r5, r6, r7, lr}
 800387e:	bf00      	nop
 8003880:	bcf8      	pop	{r3, r4, r5, r6, r7}
 8003882:	bc08      	pop	{r3}
 8003884:	469e      	mov	lr, r3
 8003886:	4770      	bx	lr
